ARM GAS  C:\Users\seanj\AppData\Local\Temp\cckfTkBz.s 			page 1


   1              		.syntax unified
   2              		.cpu cortex-m3
   3              		.fpu softvfp
   4              		.eabi_attribute 20, 1
   5              		.eabi_attribute 21, 1
   6              		.eabi_attribute 23, 3
   7              		.eabi_attribute 24, 1
   8              		.eabi_attribute 25, 1
   9              		.eabi_attribute 26, 1
  10              		.eabi_attribute 30, 6
  11              		.eabi_attribute 34, 1
  12              		.eabi_attribute 18, 4
  13              		.thumb
  14              		.syntax unified
  15              		.file	"main.c"
  16              		.text
  17              	.Ltext0:
  18              		.cfi_sections	.debug_frame
  19              		.section	.text.main,"ax",%progbits
  20              		.align	2
  21              		.global	main
  22              		.thumb
  23              		.thumb_func
  24              		.type	main, %function
  25              	main:
  26              	.LFB63:
  27              		.file 1 "main.c"
   1:main.c        **** //======================================
   2:main.c        **** // include                                         
   3:main.c        **** //======================================
   4:main.c        **** #include "oled.h"
   5:main.c        **** 
   6:main.c        **** //======================================
   7:main.c        **** // function declarations                                       
   8:main.c        **** //======================================
   9:main.c        **** void DemoGraphics(void);
  10:main.c        **** void DemoText(void);
  11:main.c        **** void DemoBitmap(void);
  12:main.c        **** 
  13:main.c        **** //======================================
  14:main.c        **** // main
  15:main.c        **** //======================================
  16:main.c        **** int main(void)
  17:main.c        **** {
  28              		.loc 1 17 0
  29              		.cfi_startproc
  30              		@ args = 0, pretend = 0, frame = 0
  31              		@ frame_needed = 1, uses_anonymous_args = 0
  32 0000 80B5     		push	{r7, lr}
  33              		.cfi_def_cfa_offset 8
  34              		.cfi_offset 7, -8
  35              		.cfi_offset 14, -4
  36 0002 00AF     		add	r7, sp, #0
  37              		.cfi_def_cfa_register 7
  18:main.c        ****     CyGlobalIntEnable;      // enable global interrupts
  38              		.loc 1 18 0
  39              		.syntax unified
ARM GAS  C:\Users\seanj\AppData\Local\Temp\cckfTkBz.s 			page 2


  40              	@ 18 "main.c" 1
  41 0004 62B6     		CPSIE   i
  42              	@ 0 "" 2
  19:main.c        ****     I2C_OLED_Start();       // initialize I2C_OLED
  43              		.loc 1 19 0
  44              		.thumb
  45              		.syntax unified
  46 0006 FFF7FEFF 		bl	I2C_OLED_Start
  20:main.c        ****     CyDelay(100);           // delay while OLED powers on
  47              		.loc 1 20 0
  48 000a 6420     		movs	r0, #100
  49 000c FFF7FEFF 		bl	CyDelay
  21:main.c        **** 
  22:main.c        ****     //DemoGraphics();
  23:main.c        ****     DemoText();
  50              		.loc 1 23 0
  51 0010 FFF7FEFF 		bl	DemoText
  52              	.L2:
  24:main.c        ****     //DemoBitmap();
  25:main.c        ****     
  26:main.c        ****     for(;;){}
  53              		.loc 1 26 0 discriminator 1
  54 0014 FEE7     		b	.L2
  55              		.cfi_endproc
  56              	.LFE63:
  57              		.size	main, .-main
  58 0016 00BF     		.section	.text.DemoGraphics,"ax",%progbits
  59              		.align	2
  60              		.global	DemoGraphics
  61              		.thumb
  62              		.thumb_func
  63              		.type	DemoGraphics, %function
  64              	DemoGraphics:
  65              	.LFB64:
  27:main.c        **** }
  28:main.c        **** 
  29:main.c        **** //========================================
  30:main.c        **** // DemoGraphics
  31:main.c        **** //========================================
  32:main.c        **** void DemoGraphics()
  33:main.c        **** {
  66              		.loc 1 33 0
  67              		.cfi_startproc
  68              		@ args = 0, pretend = 0, frame = 1064
  69              		@ frame_needed = 1, uses_anonymous_args = 0
  70 0000 80B5     		push	{r7, lr}
  71              		.cfi_def_cfa_offset 8
  72              		.cfi_offset 7, -8
  73              		.cfi_offset 14, -4
  74 0002 ADF5866D 		sub	sp, sp, #1072
  75              		.cfi_def_cfa_offset 1080
  76 0006 02AF     		add	r7, sp, #8
  77              		.cfi_def_cfa 7, 1072
  34:main.c        ****     oled_t oled;
  35:main.c        ****     uint8 slaveAddr = 0x3c;         // OLED slave address
  78              		.loc 1 35 0
  79 0008 3C23     		movs	r3, #60
ARM GAS  C:\Users\seanj\AppData\Local\Temp\cckfTkBz.s 			page 3


  80 000a 87F82734 		strb	r3, [r7, #1063]
  36:main.c        ****     oled_Init(&oled, slaveAddr, I2C_OLED_MasterSendStart, I2C_OLED_MasterSendStop, I2C_OLED_MasterW
  81              		.loc 1 36 0
  82 000e 97F82714 		ldrb	r1, [r7, #1063]	@ zero_extendqisi2
  83 0012 381D     		adds	r0, r7, #4
  84 0014 6B4B     		ldr	r3, .L5
  85 0016 0093     		str	r3, [sp]
  86 0018 6B4B     		ldr	r3, .L5+4
  87 001a 6C4A     		ldr	r2, .L5+8
  88 001c FFF7FEFF 		bl	oled_Init
  37:main.c        ****     oled_SetPenSize(&oled, 1);      // set pen size to 1
  89              		.loc 1 37 0
  90 0020 3B1D     		adds	r3, r7, #4
  91 0022 0121     		movs	r1, #1
  92 0024 1846     		mov	r0, r3
  93 0026 FFF7FEFF 		bl	oled_SetPenSize
  38:main.c        ****     int delay = 1000;
  94              		.loc 1 38 0
  95 002a 4FF47A73 		mov	r3, #1000
  96 002e C7F82034 		str	r3, [r7, #1056]
  97              	.L4:
  39:main.c        ****     for (;;){
  40:main.c        ****         oled_Clear(&oled);                                  // oled_Clear()
  98              		.loc 1 40 0 discriminator 1
  99 0032 3B1D     		adds	r3, r7, #4
 100 0034 1846     		mov	r0, r3
 101 0036 FFF7FEFF 		bl	oled_Clear
  41:main.c        ****         CyDelay(delay);
 102              		.loc 1 41 0 discriminator 1
 103 003a D7F82034 		ldr	r3, [r7, #1056]
 104 003e 1846     		mov	r0, r3
 105 0040 FFF7FEFF 		bl	CyDelay
  42:main.c        ****         oled_DrawLine(&oled, 32, 32, 96, 32);               // oled_DrawLine()
 106              		.loc 1 42 0 discriminator 1
 107 0044 381D     		adds	r0, r7, #4
 108 0046 2023     		movs	r3, #32
 109 0048 0093     		str	r3, [sp]
 110 004a 6023     		movs	r3, #96
 111 004c 2022     		movs	r2, #32
 112 004e 2021     		movs	r1, #32
 113 0050 FFF7FEFF 		bl	oled_DrawLine
  43:main.c        ****         CyDelay(delay);
 114              		.loc 1 43 0 discriminator 1
 115 0054 D7F82034 		ldr	r3, [r7, #1056]
 116 0058 1846     		mov	r0, r3
 117 005a FFF7FEFF 		bl	CyDelay
  44:main.c        ****         oled_Clear(&oled);
 118              		.loc 1 44 0 discriminator 1
 119 005e 3B1D     		adds	r3, r7, #4
 120 0060 1846     		mov	r0, r3
 121 0062 FFF7FEFF 		bl	oled_Clear
  45:main.c        ****         oled_DrawLine(&oled, 32, 16, 96, 48);  
 122              		.loc 1 45 0 discriminator 1
 123 0066 381D     		adds	r0, r7, #4
 124 0068 3023     		movs	r3, #48
 125 006a 0093     		str	r3, [sp]
 126 006c 6023     		movs	r3, #96
ARM GAS  C:\Users\seanj\AppData\Local\Temp\cckfTkBz.s 			page 4


 127 006e 1022     		movs	r2, #16
 128 0070 2021     		movs	r1, #32
 129 0072 FFF7FEFF 		bl	oled_DrawLine
  46:main.c        ****         CyDelay(delay);
 130              		.loc 1 46 0 discriminator 1
 131 0076 D7F82034 		ldr	r3, [r7, #1056]
 132 007a 1846     		mov	r0, r3
 133 007c FFF7FEFF 		bl	CyDelay
  47:main.c        ****         oled_Clear(&oled);
 134              		.loc 1 47 0 discriminator 1
 135 0080 3B1D     		adds	r3, r7, #4
 136 0082 1846     		mov	r0, r3
 137 0084 FFF7FEFF 		bl	oled_Clear
  48:main.c        ****         oled_DrawLine(&oled, 64, 16, 64, 48);  
 138              		.loc 1 48 0 discriminator 1
 139 0088 381D     		adds	r0, r7, #4
 140 008a 3023     		movs	r3, #48
 141 008c 0093     		str	r3, [sp]
 142 008e 4023     		movs	r3, #64
 143 0090 1022     		movs	r2, #16
 144 0092 4021     		movs	r1, #64
 145 0094 FFF7FEFF 		bl	oled_DrawLine
  49:main.c        ****         CyDelay(delay);
 146              		.loc 1 49 0 discriminator 1
 147 0098 D7F82034 		ldr	r3, [r7, #1056]
 148 009c 1846     		mov	r0, r3
 149 009e FFF7FEFF 		bl	CyDelay
  50:main.c        ****         oled_Clear(&oled);
 150              		.loc 1 50 0 discriminator 1
 151 00a2 3B1D     		adds	r3, r7, #4
 152 00a4 1846     		mov	r0, r3
 153 00a6 FFF7FEFF 		bl	oled_Clear
  51:main.c        ****         oled_FillRect(&oled, 32, 16, 96, 48);               // oled_FillRect()
 154              		.loc 1 51 0 discriminator 1
 155 00aa 381D     		adds	r0, r7, #4
 156 00ac 3023     		movs	r3, #48
 157 00ae 0093     		str	r3, [sp]
 158 00b0 6023     		movs	r3, #96
 159 00b2 1022     		movs	r2, #16
 160 00b4 2021     		movs	r1, #32
 161 00b6 FFF7FEFF 		bl	oled_FillRect
  52:main.c        ****         CyDelay(delay);
 162              		.loc 1 52 0 discriminator 1
 163 00ba D7F82034 		ldr	r3, [r7, #1056]
 164 00be 1846     		mov	r0, r3
 165 00c0 FFF7FEFF 		bl	CyDelay
  53:main.c        ****         oled_Clear(&oled);
 166              		.loc 1 53 0 discriminator 1
 167 00c4 3B1D     		adds	r3, r7, #4
 168 00c6 1846     		mov	r0, r3
 169 00c8 FFF7FEFF 		bl	oled_Clear
  54:main.c        ****         oled_FillRoundedRect(&oled, 32, 16, 96, 48, 10);    // oled_FillRoundedRect()
 170              		.loc 1 54 0 discriminator 1
 171 00cc 381D     		adds	r0, r7, #4
 172 00ce 0A23     		movs	r3, #10
 173 00d0 0193     		str	r3, [sp, #4]
 174 00d2 3023     		movs	r3, #48
ARM GAS  C:\Users\seanj\AppData\Local\Temp\cckfTkBz.s 			page 5


 175 00d4 0093     		str	r3, [sp]
 176 00d6 6023     		movs	r3, #96
 177 00d8 1022     		movs	r2, #16
 178 00da 2021     		movs	r1, #32
 179 00dc FFF7FEFF 		bl	oled_FillRoundedRect
  55:main.c        ****         CyDelay(delay);
 180              		.loc 1 55 0 discriminator 1
 181 00e0 D7F82034 		ldr	r3, [r7, #1056]
 182 00e4 1846     		mov	r0, r3
 183 00e6 FFF7FEFF 		bl	CyDelay
  56:main.c        ****         oled_Clear(&oled);
 184              		.loc 1 56 0 discriminator 1
 185 00ea 3B1D     		adds	r3, r7, #4
 186 00ec 1846     		mov	r0, r3
 187 00ee FFF7FEFF 		bl	oled_Clear
  57:main.c        ****         oled_DrawRect(&oled, 32, 16, 96, 48);               // oled_DrawRect()
 188              		.loc 1 57 0 discriminator 1
 189 00f2 381D     		adds	r0, r7, #4
 190 00f4 3023     		movs	r3, #48
 191 00f6 0093     		str	r3, [sp]
 192 00f8 6023     		movs	r3, #96
 193 00fa 1022     		movs	r2, #16
 194 00fc 2021     		movs	r1, #32
 195 00fe FFF7FEFF 		bl	oled_DrawRect
  58:main.c        ****         CyDelay(delay);
 196              		.loc 1 58 0 discriminator 1
 197 0102 D7F82034 		ldr	r3, [r7, #1056]
 198 0106 1846     		mov	r0, r3
 199 0108 FFF7FEFF 		bl	CyDelay
  59:main.c        ****         oled_Clear(&oled);
 200              		.loc 1 59 0 discriminator 1
 201 010c 3B1D     		adds	r3, r7, #4
 202 010e 1846     		mov	r0, r3
 203 0110 FFF7FEFF 		bl	oled_Clear
  60:main.c        ****         oled_DrawRoundedRect(&oled, 32, 16, 96, 48, 10);    // oled_DrawRoundedRect()
 204              		.loc 1 60 0 discriminator 1
 205 0114 381D     		adds	r0, r7, #4
 206 0116 0A23     		movs	r3, #10
 207 0118 0193     		str	r3, [sp, #4]
 208 011a 3023     		movs	r3, #48
 209 011c 0093     		str	r3, [sp]
 210 011e 6023     		movs	r3, #96
 211 0120 1022     		movs	r2, #16
 212 0122 2021     		movs	r1, #32
 213 0124 FFF7FEFF 		bl	oled_DrawRoundedRect
  61:main.c        ****         CyDelay(delay);
 214              		.loc 1 61 0 discriminator 1
 215 0128 D7F82034 		ldr	r3, [r7, #1056]
 216 012c 1846     		mov	r0, r3
 217 012e FFF7FEFF 		bl	CyDelay
  62:main.c        ****         oled_Clear(&oled);
 218              		.loc 1 62 0 discriminator 1
 219 0132 3B1D     		adds	r3, r7, #4
 220 0134 1846     		mov	r0, r3
 221 0136 FFF7FEFF 		bl	oled_Clear
  63:main.c        ****         oled_DrawCircle(&oled,64, 32, 20);                  // oled_DrawCircle()
 222              		.loc 1 63 0 discriminator 1
ARM GAS  C:\Users\seanj\AppData\Local\Temp\cckfTkBz.s 			page 6


 223 013a 381D     		adds	r0, r7, #4
 224 013c 1423     		movs	r3, #20
 225 013e 2022     		movs	r2, #32
 226 0140 4021     		movs	r1, #64
 227 0142 FFF7FEFF 		bl	oled_DrawCircle
  64:main.c        ****         CyDelay(delay);
 228              		.loc 1 64 0 discriminator 1
 229 0146 D7F82034 		ldr	r3, [r7, #1056]
 230 014a 1846     		mov	r0, r3
 231 014c FFF7FEFF 		bl	CyDelay
  65:main.c        ****         oled_Clear(&oled);
 232              		.loc 1 65 0 discriminator 1
 233 0150 3B1D     		adds	r3, r7, #4
 234 0152 1846     		mov	r0, r3
 235 0154 FFF7FEFF 		bl	oled_Clear
  66:main.c        ****         oled_DrawArc(&oled,64, 32, 20, 5, 8);               // oled_DrawCircle()
 236              		.loc 1 66 0 discriminator 1
 237 0158 381D     		adds	r0, r7, #4
 238 015a 0823     		movs	r3, #8
 239 015c 0193     		str	r3, [sp, #4]
 240 015e 0523     		movs	r3, #5
 241 0160 0093     		str	r3, [sp]
 242 0162 1423     		movs	r3, #20
 243 0164 2022     		movs	r2, #32
 244 0166 4021     		movs	r1, #64
 245 0168 FFF7FEFF 		bl	oled_DrawArc
  67:main.c        ****         CyDelay(delay);
 246              		.loc 1 67 0 discriminator 1
 247 016c D7F82034 		ldr	r3, [r7, #1056]
 248 0170 1846     		mov	r0, r3
 249 0172 FFF7FEFF 		bl	CyDelay
  68:main.c        ****         oled_Clear(&oled);
 250              		.loc 1 68 0 discriminator 1
 251 0176 3B1D     		adds	r3, r7, #4
 252 0178 1846     		mov	r0, r3
 253 017a FFF7FEFF 		bl	oled_Clear
  69:main.c        ****         oled_FillCircle(&oled,64, 32, 20);                  // oled_FillCircle()
 254              		.loc 1 69 0 discriminator 1
 255 017e 381D     		adds	r0, r7, #4
 256 0180 1423     		movs	r3, #20
 257 0182 2022     		movs	r2, #32
 258 0184 4021     		movs	r1, #64
 259 0186 FFF7FEFF 		bl	oled_FillCircle
  70:main.c        ****         CyDelay(delay);
 260              		.loc 1 70 0 discriminator 1
 261 018a D7F82034 		ldr	r3, [r7, #1056]
 262 018e 1846     		mov	r0, r3
 263 0190 FFF7FEFF 		bl	CyDelay
  71:main.c        ****         oled_Clear(&oled);
 264              		.loc 1 71 0 discriminator 1
 265 0194 3B1D     		adds	r3, r7, #4
 266 0196 1846     		mov	r0, r3
 267 0198 FFF7FEFF 		bl	oled_Clear
  72:main.c        ****         oled_DrawPie(&oled,64, 32, 20, 5, 8);               // oled_DrawPie()
 268              		.loc 1 72 0 discriminator 1
 269 019c 381D     		adds	r0, r7, #4
 270 019e 0823     		movs	r3, #8
ARM GAS  C:\Users\seanj\AppData\Local\Temp\cckfTkBz.s 			page 7


 271 01a0 0193     		str	r3, [sp, #4]
 272 01a2 0523     		movs	r3, #5
 273 01a4 0093     		str	r3, [sp]
 274 01a6 1423     		movs	r3, #20
 275 01a8 2022     		movs	r2, #32
 276 01aa 4021     		movs	r1, #64
 277 01ac FFF7FEFF 		bl	oled_DrawPie
  73:main.c        ****         CyDelay(delay);
 278              		.loc 1 73 0 discriminator 1
 279 01b0 D7F82034 		ldr	r3, [r7, #1056]
 280 01b4 1846     		mov	r0, r3
 281 01b6 FFF7FEFF 		bl	CyDelay
  74:main.c        ****         oled_Clear(&oled);   
 282              		.loc 1 74 0 discriminator 1
 283 01ba 3B1D     		adds	r3, r7, #4
 284 01bc 1846     		mov	r0, r3
 285 01be FFF7FEFF 		bl	oled_Clear
  75:main.c        ****     }
 286              		.loc 1 75 0 discriminator 1
 287 01c2 36E7     		b	.L4
 288              	.L6:
 289              		.align	2
 290              	.L5:
 291 01c4 00000000 		.word	I2C_OLED_MasterWriteByte
 292 01c8 00000000 		.word	I2C_OLED_MasterSendStop
 293 01cc 00000000 		.word	I2C_OLED_MasterSendStart
 294              		.cfi_endproc
 295              	.LFE64:
 296              		.size	DemoGraphics, .-DemoGraphics
 297              		.section	.rodata
 298              		.align	2
 299              	.LC0:
 300 0000 57454C43 		.ascii	"WELCOME\012TO\012ELECTRONIX\012FIRST\000"
 300      4F4D450A 
 300      544F0A45 
 300      4C454354 
 300      524F4E49 
 301              		.section	.text.DemoText,"ax",%progbits
 302              		.align	2
 303              		.global	DemoText
 304              		.thumb
 305              		.thumb_func
 306              		.type	DemoText, %function
 307              	DemoText:
 308              	.LFB65:
  76:main.c        **** }
  77:main.c        **** 
  78:main.c        **** //========================================
  79:main.c        **** // oled_DemoText
  80:main.c        **** //========================================
  81:main.c        **** void DemoText(void)
  82:main.c        **** {
 309              		.loc 1 82 0
 310              		.cfi_startproc
 311              		@ args = 0, pretend = 0, frame = 1056
 312              		@ frame_needed = 1, uses_anonymous_args = 0
 313 0000 80B5     		push	{r7, lr}
ARM GAS  C:\Users\seanj\AppData\Local\Temp\cckfTkBz.s 			page 8


 314              		.cfi_def_cfa_offset 8
 315              		.cfi_offset 7, -8
 316              		.cfi_offset 14, -4
 317 0002 ADF5856D 		sub	sp, sp, #1064
 318              		.cfi_def_cfa_offset 1072
 319 0006 02AF     		add	r7, sp, #8
 320              		.cfi_def_cfa 7, 1064
  83:main.c        ****     oled_t oled;
  84:main.c        ****     uint8 slaveAddr = 0x3c;         // OLED slave address
 321              		.loc 1 84 0
 322 0008 3C23     		movs	r3, #60
 323 000a 87F81F34 		strb	r3, [r7, #1055]
  85:main.c        ****     oled_Init(&oled, slaveAddr, I2C_OLED_MasterSendStart, I2C_OLED_MasterSendStop, I2C_OLED_MasterW
 324              		.loc 1 85 0
 325 000e 97F81F14 		ldrb	r1, [r7, #1055]	@ zero_extendqisi2
 326 0012 3846     		mov	r0, r7
 327 0014 0A4B     		ldr	r3, .L8
 328 0016 0093     		str	r3, [sp]
 329 0018 0A4B     		ldr	r3, .L8+4
 330 001a 0B4A     		ldr	r2, .L8+8
 331 001c FFF7FEFF 		bl	oled_Init
  86:main.c        ****     oled_Clear(&oled);
 332              		.loc 1 86 0
 333 0020 3B46     		mov	r3, r7
 334 0022 1846     		mov	r0, r3
 335 0024 FFF7FEFF 		bl	oled_Clear
  87:main.c        ****     oled_DispString(&oled, 0, 0, "WELCOME\nTO\nELECTRONIX\nFIRST");
 336              		.loc 1 87 0
 337 0028 3846     		mov	r0, r7
 338 002a 084B     		ldr	r3, .L8+12
 339 002c 0022     		movs	r2, #0
 340 002e 0021     		movs	r1, #0
 341 0030 FFF7FEFF 		bl	oled_DispString
  88:main.c        **** }
 342              		.loc 1 88 0
 343 0034 00BF     		nop
 344 0036 07F58467 		add	r7, r7, #1056
 345              		.cfi_def_cfa_offset 8
 346 003a BD46     		mov	sp, r7
 347              		.cfi_def_cfa_register 13
 348              		@ sp needed
 349 003c 80BD     		pop	{r7, pc}
 350              	.L9:
 351 003e 00BF     		.align	2
 352              	.L8:
 353 0040 00000000 		.word	I2C_OLED_MasterWriteByte
 354 0044 00000000 		.word	I2C_OLED_MasterSendStop
 355 0048 00000000 		.word	I2C_OLED_MasterSendStart
 356 004c 00000000 		.word	.LC0
 357              		.cfi_endproc
 358              	.LFE65:
 359              		.size	DemoText, .-DemoText
 360              		.section	.text.DemoBitmap,"ax",%progbits
 361              		.align	2
 362              		.global	DemoBitmap
 363              		.thumb
 364              		.thumb_func
ARM GAS  C:\Users\seanj\AppData\Local\Temp\cckfTkBz.s 			page 9


 365              		.type	DemoBitmap, %function
 366              	DemoBitmap:
 367              	.LFB66:
  89:main.c        **** 
  90:main.c        **** //========================================
  91:main.c        **** // DemoBitmap
  92:main.c        **** //========================================
  93:main.c        **** void DemoBitmap(void)
  94:main.c        **** {
 368              		.loc 1 94 0
 369              		.cfi_startproc
 370              		@ args = 0, pretend = 0, frame = 1064
 371              		@ frame_needed = 1, uses_anonymous_args = 0
 372 0000 80B5     		push	{r7, lr}
 373              		.cfi_def_cfa_offset 8
 374              		.cfi_offset 7, -8
 375              		.cfi_offset 14, -4
 376 0002 ADF5866D 		sub	sp, sp, #1072
 377              		.cfi_def_cfa_offset 1080
 378 0006 02AF     		add	r7, sp, #8
 379              		.cfi_def_cfa 7, 1072
  95:main.c        ****     oled_t oled;
  96:main.c        ****     uint8 slaveAddr = 0x3c;                 // OLED slave address
 380              		.loc 1 96 0
 381 0008 3C23     		movs	r3, #60
 382 000a 87F82734 		strb	r3, [r7, #1063]
  97:main.c        ****     oled_Init(&oled, slaveAddr, I2C_OLED_MasterSendStart, I2C_OLED_MasterSendStop, I2C_OLED_MasterW
 383              		.loc 1 97 0
 384 000e 97F82714 		ldrb	r1, [r7, #1063]	@ zero_extendqisi2
 385 0012 3846     		mov	r0, r7
 386 0014 114B     		ldr	r3, .L11
 387 0016 0093     		str	r3, [sp]
 388 0018 114B     		ldr	r3, .L11+4
 389 001a 124A     		ldr	r2, .L11+8
 390 001c FFF7FEFF 		bl	oled_Init
  98:main.c        ****     oled_Clear(&oled);
 391              		.loc 1 98 0
 392 0020 3B46     		mov	r3, r7
 393 0022 1846     		mov	r0, r3
 394 0024 FFF7FEFF 		bl	oled_Clear
  99:main.c        ****     int MIT_width = 64, MIT_height = 38;    // height and width of bitmap
 395              		.loc 1 99 0
 396 0028 4023     		movs	r3, #64
 397 002a C7F82034 		str	r3, [r7, #1056]
 398 002e 2623     		movs	r3, #38
 399 0030 C7F81C34 		str	r3, [r7, #1052]
 100:main.c        ****     static unsigned char MIT_bits[] = {
 101:main.c        ****         0x00, 0x00, 0x00, 0x00, 0x00, 0x00, 0x00, 0x00, 0x00, 0x00, 0x00, 0x00,
 102:main.c        ****         0x00, 0x00, 0x00, 0x00, 0x00, 0x00, 0x00, 0x00, 0x00, 0x00, 0x00, 0x00,
 103:main.c        ****         0xf8, 0xc1, 0x0f, 0x7e, 0xf0, 0x83, 0xff, 0x3f, 0xf8, 0xc1, 0x0f, 0x7e,
 104:main.c        ****         0xf0, 0x83, 0xff, 0x3f, 0xf8, 0xc1, 0x0f, 0x7e, 0xf0, 0x83, 0xff, 0x3f,
 105:main.c        ****         0xf8, 0xc1, 0x0f, 0x7e, 0xf0, 0x83, 0xff, 0x3f, 0xf8, 0xc1, 0x0f, 0x7e,
 106:main.c        ****         0xf0, 0x83, 0xff, 0x3f, 0xf8, 0xc1, 0x0f, 0x7e, 0xf0, 0x83, 0xff, 0x3f,
 107:main.c        ****         0xf8, 0xc1, 0x0f, 0x7e, 0x00, 0x00, 0x00, 0x00, 0xf8, 0xc1, 0x0f, 0x7e,
 108:main.c        ****         0x00, 0x00, 0x00, 0x00, 0xf8, 0xc1, 0x0f, 0x7e, 0x00, 0x00, 0x00, 0x00,
 109:main.c        ****         0xf8, 0xc1, 0x0f, 0x7e, 0x00, 0x00, 0x00, 0x00, 0xf8, 0xc1, 0x0f, 0x7e,
 110:main.c        ****         0x00, 0x00, 0x00, 0x00, 0xf8, 0xc1, 0x0f, 0x7e, 0xf0, 0x83, 0x1f, 0x00,
ARM GAS  C:\Users\seanj\AppData\Local\Temp\cckfTkBz.s 			page 10


 111:main.c        ****         0xf8, 0xc1, 0x0f, 0x7e, 0xf0, 0x83, 0x1f, 0x00, 0xf8, 0xc1, 0x0f, 0x7e,
 112:main.c        ****         0xf0, 0x83, 0x1f, 0x00, 0xf8, 0xc1, 0x0f, 0x7e, 0xf0, 0x83, 0x1f, 0x00,
 113:main.c        ****         0xf8, 0xc1, 0x0f, 0x7e, 0xf0, 0x83, 0x1f, 0x00, 0xf8, 0xc1, 0x0f, 0x7e,
 114:main.c        ****         0xf0, 0x83, 0x1f, 0x00, 0xf8, 0xc1, 0x0f, 0x7e, 0xf0, 0x83, 0x1f, 0x00,
 115:main.c        ****         0xf8, 0xc1, 0x0f, 0x7e, 0xf0, 0x83, 0x1f, 0x00, 0xf8, 0xc1, 0x0f, 0x7e,
 116:main.c        ****         0xf0, 0x83, 0x1f, 0x00, 0xf8, 0xc1, 0x0f, 0x7e, 0xf0, 0x83, 0x1f, 0x00,
 117:main.c        ****         0xf8, 0x01, 0x00, 0x7e, 0xf0, 0x83, 0x1f, 0x00, 0xf8, 0x01, 0x00, 0x7e,
 118:main.c        ****         0xf0, 0x83, 0x1f, 0x00, 0xf8, 0x01, 0x00, 0x7e, 0xf0, 0x83, 0x1f, 0x00,
 119:main.c        ****         0xf8, 0x01, 0x00, 0x7e, 0xf0, 0x83, 0x1f, 0x00, 0xf8, 0x01, 0x00, 0x7e,
 120:main.c        ****         0xf0, 0x83, 0x1f, 0x00, 0xf8, 0x01, 0x00, 0x7e, 0xf0, 0x83, 0x1f, 0x00,
 121:main.c        ****         0xf8, 0x01, 0x00, 0x7e, 0xf0, 0x83, 0x1f, 0x00, 0xf8, 0x01, 0x00, 0x7e,
 122:main.c        ****         0xf0, 0x83, 0x1f, 0x00, 0xf8, 0x01, 0x00, 0x7e, 0xf0, 0x83, 0x1f, 0x00,
 123:main.c        ****         0xf8, 0x01, 0x00, 0x7e, 0xf0, 0x83, 0x1f, 0x00, 0xf8, 0x01, 0x00, 0x7e,
 124:main.c        ****         0xf0, 0x83, 0x1f, 0x00, 0x00, 0x00, 0x00, 0x00, 0x00, 0x00, 0x00, 0x00,
 125:main.c        ****         0x00, 0x00, 0x00, 0x00, 0x00, 0x00, 0x00, 0x00, 0x00, 0x00, 0x00, 0x00,
 126:main.c        ****         0x00, 0x00, 0x00, 0x00 
 127:main.c        ****     };
 128:main.c        ****     oled_DispBitmap(&oled, 32, 13, MIT_bits, MIT_width, MIT_height);    // display bitmap
 400              		.loc 1 128 0
 401 0034 D7F82034 		ldr	r3, [r7, #1056]
 402 0038 9BB2     		uxth	r3, r3
 403 003a D7F81C24 		ldr	r2, [r7, #1052]
 404 003e 92B2     		uxth	r2, r2
 405 0040 3846     		mov	r0, r7
 406 0042 0192     		str	r2, [sp, #4]
 407 0044 0093     		str	r3, [sp]
 408 0046 084B     		ldr	r3, .L11+12
 409 0048 0D22     		movs	r2, #13
 410 004a 2021     		movs	r1, #32
 411 004c FFF7FEFF 		bl	oled_DispBitmap
 129:main.c        **** }
 412              		.loc 1 129 0
 413 0050 00BF     		nop
 414 0052 07F58567 		add	r7, r7, #1064
 415              		.cfi_def_cfa_offset 8
 416 0056 BD46     		mov	sp, r7
 417              		.cfi_def_cfa_register 13
 418              		@ sp needed
 419 0058 80BD     		pop	{r7, pc}
 420              	.L12:
 421 005a 00BF     		.align	2
 422              	.L11:
 423 005c 00000000 		.word	I2C_OLED_MasterWriteByte
 424 0060 00000000 		.word	I2C_OLED_MasterSendStop
 425 0064 00000000 		.word	I2C_OLED_MasterSendStart
 426 0068 00000000 		.word	MIT_bits.5796
 427              		.cfi_endproc
 428              	.LFE66:
 429              		.size	DemoBitmap, .-DemoBitmap
 430              		.data
 431              		.align	2
 432              		.type	MIT_bits.5796, %object
 433              		.size	MIT_bits.5796, 304
 434              	MIT_bits.5796:
 435 0000 00       		.byte	0
 436 0001 00       		.byte	0
 437 0002 00       		.byte	0
ARM GAS  C:\Users\seanj\AppData\Local\Temp\cckfTkBz.s 			page 11


 438 0003 00       		.byte	0
 439 0004 00       		.byte	0
 440 0005 00       		.byte	0
 441 0006 00       		.byte	0
 442 0007 00       		.byte	0
 443 0008 00       		.byte	0
 444 0009 00       		.byte	0
 445 000a 00       		.byte	0
 446 000b 00       		.byte	0
 447 000c 00       		.byte	0
 448 000d 00       		.byte	0
 449 000e 00       		.byte	0
 450 000f 00       		.byte	0
 451 0010 00       		.byte	0
 452 0011 00       		.byte	0
 453 0012 00       		.byte	0
 454 0013 00       		.byte	0
 455 0014 00       		.byte	0
 456 0015 00       		.byte	0
 457 0016 00       		.byte	0
 458 0017 00       		.byte	0
 459 0018 F8       		.byte	-8
 460 0019 C1       		.byte	-63
 461 001a 0F       		.byte	15
 462 001b 7E       		.byte	126
 463 001c F0       		.byte	-16
 464 001d 83       		.byte	-125
 465 001e FF       		.byte	-1
 466 001f 3F       		.byte	63
 467 0020 F8       		.byte	-8
 468 0021 C1       		.byte	-63
 469 0022 0F       		.byte	15
 470 0023 7E       		.byte	126
 471 0024 F0       		.byte	-16
 472 0025 83       		.byte	-125
 473 0026 FF       		.byte	-1
 474 0027 3F       		.byte	63
 475 0028 F8       		.byte	-8
 476 0029 C1       		.byte	-63
 477 002a 0F       		.byte	15
 478 002b 7E       		.byte	126
 479 002c F0       		.byte	-16
 480 002d 83       		.byte	-125
 481 002e FF       		.byte	-1
 482 002f 3F       		.byte	63
 483 0030 F8       		.byte	-8
 484 0031 C1       		.byte	-63
 485 0032 0F       		.byte	15
 486 0033 7E       		.byte	126
 487 0034 F0       		.byte	-16
 488 0035 83       		.byte	-125
 489 0036 FF       		.byte	-1
 490 0037 3F       		.byte	63
 491 0038 F8       		.byte	-8
 492 0039 C1       		.byte	-63
 493 003a 0F       		.byte	15
 494 003b 7E       		.byte	126
ARM GAS  C:\Users\seanj\AppData\Local\Temp\cckfTkBz.s 			page 12


 495 003c F0       		.byte	-16
 496 003d 83       		.byte	-125
 497 003e FF       		.byte	-1
 498 003f 3F       		.byte	63
 499 0040 F8       		.byte	-8
 500 0041 C1       		.byte	-63
 501 0042 0F       		.byte	15
 502 0043 7E       		.byte	126
 503 0044 F0       		.byte	-16
 504 0045 83       		.byte	-125
 505 0046 FF       		.byte	-1
 506 0047 3F       		.byte	63
 507 0048 F8       		.byte	-8
 508 0049 C1       		.byte	-63
 509 004a 0F       		.byte	15
 510 004b 7E       		.byte	126
 511 004c 00       		.byte	0
 512 004d 00       		.byte	0
 513 004e 00       		.byte	0
 514 004f 00       		.byte	0
 515 0050 F8       		.byte	-8
 516 0051 C1       		.byte	-63
 517 0052 0F       		.byte	15
 518 0053 7E       		.byte	126
 519 0054 00       		.byte	0
 520 0055 00       		.byte	0
 521 0056 00       		.byte	0
 522 0057 00       		.byte	0
 523 0058 F8       		.byte	-8
 524 0059 C1       		.byte	-63
 525 005a 0F       		.byte	15
 526 005b 7E       		.byte	126
 527 005c 00       		.byte	0
 528 005d 00       		.byte	0
 529 005e 00       		.byte	0
 530 005f 00       		.byte	0
 531 0060 F8       		.byte	-8
 532 0061 C1       		.byte	-63
 533 0062 0F       		.byte	15
 534 0063 7E       		.byte	126
 535 0064 00       		.byte	0
 536 0065 00       		.byte	0
 537 0066 00       		.byte	0
 538 0067 00       		.byte	0
 539 0068 F8       		.byte	-8
 540 0069 C1       		.byte	-63
 541 006a 0F       		.byte	15
 542 006b 7E       		.byte	126
 543 006c 00       		.byte	0
 544 006d 00       		.byte	0
 545 006e 00       		.byte	0
 546 006f 00       		.byte	0
 547 0070 F8       		.byte	-8
 548 0071 C1       		.byte	-63
 549 0072 0F       		.byte	15
 550 0073 7E       		.byte	126
 551 0074 F0       		.byte	-16
ARM GAS  C:\Users\seanj\AppData\Local\Temp\cckfTkBz.s 			page 13


 552 0075 83       		.byte	-125
 553 0076 1F       		.byte	31
 554 0077 00       		.byte	0
 555 0078 F8       		.byte	-8
 556 0079 C1       		.byte	-63
 557 007a 0F       		.byte	15
 558 007b 7E       		.byte	126
 559 007c F0       		.byte	-16
 560 007d 83       		.byte	-125
 561 007e 1F       		.byte	31
 562 007f 00       		.byte	0
 563 0080 F8       		.byte	-8
 564 0081 C1       		.byte	-63
 565 0082 0F       		.byte	15
 566 0083 7E       		.byte	126
 567 0084 F0       		.byte	-16
 568 0085 83       		.byte	-125
 569 0086 1F       		.byte	31
 570 0087 00       		.byte	0
 571 0088 F8       		.byte	-8
 572 0089 C1       		.byte	-63
 573 008a 0F       		.byte	15
 574 008b 7E       		.byte	126
 575 008c F0       		.byte	-16
 576 008d 83       		.byte	-125
 577 008e 1F       		.byte	31
 578 008f 00       		.byte	0
 579 0090 F8       		.byte	-8
 580 0091 C1       		.byte	-63
 581 0092 0F       		.byte	15
 582 0093 7E       		.byte	126
 583 0094 F0       		.byte	-16
 584 0095 83       		.byte	-125
 585 0096 1F       		.byte	31
 586 0097 00       		.byte	0
 587 0098 F8       		.byte	-8
 588 0099 C1       		.byte	-63
 589 009a 0F       		.byte	15
 590 009b 7E       		.byte	126
 591 009c F0       		.byte	-16
 592 009d 83       		.byte	-125
 593 009e 1F       		.byte	31
 594 009f 00       		.byte	0
 595 00a0 F8       		.byte	-8
 596 00a1 C1       		.byte	-63
 597 00a2 0F       		.byte	15
 598 00a3 7E       		.byte	126
 599 00a4 F0       		.byte	-16
 600 00a5 83       		.byte	-125
 601 00a6 1F       		.byte	31
 602 00a7 00       		.byte	0
 603 00a8 F8       		.byte	-8
 604 00a9 C1       		.byte	-63
 605 00aa 0F       		.byte	15
 606 00ab 7E       		.byte	126
 607 00ac F0       		.byte	-16
 608 00ad 83       		.byte	-125
ARM GAS  C:\Users\seanj\AppData\Local\Temp\cckfTkBz.s 			page 14


 609 00ae 1F       		.byte	31
 610 00af 00       		.byte	0
 611 00b0 F8       		.byte	-8
 612 00b1 C1       		.byte	-63
 613 00b2 0F       		.byte	15
 614 00b3 7E       		.byte	126
 615 00b4 F0       		.byte	-16
 616 00b5 83       		.byte	-125
 617 00b6 1F       		.byte	31
 618 00b7 00       		.byte	0
 619 00b8 F8       		.byte	-8
 620 00b9 C1       		.byte	-63
 621 00ba 0F       		.byte	15
 622 00bb 7E       		.byte	126
 623 00bc F0       		.byte	-16
 624 00bd 83       		.byte	-125
 625 00be 1F       		.byte	31
 626 00bf 00       		.byte	0
 627 00c0 F8       		.byte	-8
 628 00c1 01       		.byte	1
 629 00c2 00       		.byte	0
 630 00c3 7E       		.byte	126
 631 00c4 F0       		.byte	-16
 632 00c5 83       		.byte	-125
 633 00c6 1F       		.byte	31
 634 00c7 00       		.byte	0
 635 00c8 F8       		.byte	-8
 636 00c9 01       		.byte	1
 637 00ca 00       		.byte	0
 638 00cb 7E       		.byte	126
 639 00cc F0       		.byte	-16
 640 00cd 83       		.byte	-125
 641 00ce 1F       		.byte	31
 642 00cf 00       		.byte	0
 643 00d0 F8       		.byte	-8
 644 00d1 01       		.byte	1
 645 00d2 00       		.byte	0
 646 00d3 7E       		.byte	126
 647 00d4 F0       		.byte	-16
 648 00d5 83       		.byte	-125
 649 00d6 1F       		.byte	31
 650 00d7 00       		.byte	0
 651 00d8 F8       		.byte	-8
 652 00d9 01       		.byte	1
 653 00da 00       		.byte	0
 654 00db 7E       		.byte	126
 655 00dc F0       		.byte	-16
 656 00dd 83       		.byte	-125
 657 00de 1F       		.byte	31
 658 00df 00       		.byte	0
 659 00e0 F8       		.byte	-8
 660 00e1 01       		.byte	1
 661 00e2 00       		.byte	0
 662 00e3 7E       		.byte	126
 663 00e4 F0       		.byte	-16
 664 00e5 83       		.byte	-125
 665 00e6 1F       		.byte	31
ARM GAS  C:\Users\seanj\AppData\Local\Temp\cckfTkBz.s 			page 15


 666 00e7 00       		.byte	0
 667 00e8 F8       		.byte	-8
 668 00e9 01       		.byte	1
 669 00ea 00       		.byte	0
 670 00eb 7E       		.byte	126
 671 00ec F0       		.byte	-16
 672 00ed 83       		.byte	-125
 673 00ee 1F       		.byte	31
 674 00ef 00       		.byte	0
 675 00f0 F8       		.byte	-8
 676 00f1 01       		.byte	1
 677 00f2 00       		.byte	0
 678 00f3 7E       		.byte	126
 679 00f4 F0       		.byte	-16
 680 00f5 83       		.byte	-125
 681 00f6 1F       		.byte	31
 682 00f7 00       		.byte	0
 683 00f8 F8       		.byte	-8
 684 00f9 01       		.byte	1
 685 00fa 00       		.byte	0
 686 00fb 7E       		.byte	126
 687 00fc F0       		.byte	-16
 688 00fd 83       		.byte	-125
 689 00fe 1F       		.byte	31
 690 00ff 00       		.byte	0
 691 0100 F8       		.byte	-8
 692 0101 01       		.byte	1
 693 0102 00       		.byte	0
 694 0103 7E       		.byte	126
 695 0104 F0       		.byte	-16
 696 0105 83       		.byte	-125
 697 0106 1F       		.byte	31
 698 0107 00       		.byte	0
 699 0108 F8       		.byte	-8
 700 0109 01       		.byte	1
 701 010a 00       		.byte	0
 702 010b 7E       		.byte	126
 703 010c F0       		.byte	-16
 704 010d 83       		.byte	-125
 705 010e 1F       		.byte	31
 706 010f 00       		.byte	0
 707 0110 F8       		.byte	-8
 708 0111 01       		.byte	1
 709 0112 00       		.byte	0
 710 0113 7E       		.byte	126
 711 0114 F0       		.byte	-16
 712 0115 83       		.byte	-125
 713 0116 1F       		.byte	31
 714 0117 00       		.byte	0
 715 0118 00       		.byte	0
 716 0119 00       		.byte	0
 717 011a 00       		.byte	0
 718 011b 00       		.byte	0
 719 011c 00       		.byte	0
 720 011d 00       		.byte	0
 721 011e 00       		.byte	0
 722 011f 00       		.byte	0
ARM GAS  C:\Users\seanj\AppData\Local\Temp\cckfTkBz.s 			page 16


 723 0120 00       		.byte	0
 724 0121 00       		.byte	0
 725 0122 00       		.byte	0
 726 0123 00       		.byte	0
 727 0124 00       		.byte	0
 728 0125 00       		.byte	0
 729 0126 00       		.byte	0
 730 0127 00       		.byte	0
 731 0128 00       		.byte	0
 732 0129 00       		.byte	0
 733 012a 00       		.byte	0
 734 012b 00       		.byte	0
 735 012c 00       		.byte	0
 736 012d 00       		.byte	0
 737 012e 00       		.byte	0
 738 012f 00       		.byte	0
 739              		.text
 740              	.Letext0:
 741              		.file 2 "c:\\program files (x86)\\cypress\\psoc creator\\4.2\\psoc creator\\import\\gnu\\arm\\5.4.
 742              		.file 3 "c:\\program files (x86)\\cypress\\psoc creator\\4.2\\psoc creator\\import\\gnu\\arm\\5.4.
 743              		.file 4 "Generated_Source\\PSoC5/cytypes.h"
 744              		.file 5 "font.h"
 745              		.file 6 "oled.h"
 746              		.file 7 "Generated_Source\\PSoC5/core_cm3.h"