ARM GAS  C:\Users\seanj\AppData\Local\Temp\ccw9gLN6.s 			page 1


   1              		.syntax unified
   2              		.cpu cortex-m3
   3              		.fpu softvfp
   4              		.eabi_attribute 20, 1
   5              		.eabi_attribute 21, 1
   6              		.eabi_attribute 23, 3
   7              		.eabi_attribute 24, 1
   8              		.eabi_attribute 25, 1
   9              		.eabi_attribute 26, 1
  10              		.eabi_attribute 30, 6
  11              		.eabi_attribute 34, 1
  12              		.eabi_attribute 18, 4
  13              		.thumb
  14              		.syntax unified
  15              		.file	"oled.c"
  16              		.text
  17              	.Ltext0:
  18              		.cfi_sections	.debug_frame
  19              		.global	initCmds
  20              		.section	.rodata
  21              		.align	2
  22              		.type	initCmds, %object
  23              		.size	initCmds, 8
  24              	initCmds:
  25 0000 00       		.byte	0
  26 0001 8D       		.byte	-115
  27 0002 14       		.byte	20
  28 0003 A1       		.byte	-95
  29 0004 C8       		.byte	-56
  30 0005 AF       		.byte	-81
  31 0006 20       		.byte	32
  32 0007 00       		.byte	0
  33              		.section	.text.oled_Init,"ax",%progbits
  34              		.align	2
  35              		.global	oled_Init
  36              		.thumb
  37              		.thumb_func
  38              		.type	oled_Init, %function
  39              	oled_Init:
  40              	.LFB63:
  41              		.file 1 "oled.c"
   1:oled.c        **** //======================================
   2:oled.c        **** // include                                         
   3:oled.c        **** //======================================
   4:oled.c        **** #include "oled.h"
   5:oled.c        **** 
   6:oled.c        **** //======================================
   7:oled.c        **** // private function declarations                                        
   8:oled.c        **** //======================================
   9:oled.c        **** void SetColumnAddress(oled_t * oled, uint8 A, uint8 B);
  10:oled.c        **** void SetPageAddress(oled_t * oled, uint8 A, uint8 B);
  11:oled.c        **** void WriteGRAM(oled_t * oled, int x0, int y0, int x1, int y1, uint8 color);
  12:oled.c        **** void DrawHLine(oled_t * oled, int y, int x0, int x1);
  13:oled.c        **** void DrawVLine(oled_t * oled, int x, int y0, int y1);
  14:oled.c        **** void BresenhamLineAlgorithm(oled_t * oled, int x0, int y0, int dx, int dy, uint8 rot);
  15:oled.c        **** void PlotPerpLineL(oled_t * oled, int x0, int y0, int dx, int dy, int x, int y, int step, uint8 rot
  16:oled.c        **** void PlotPerpLineR(oled_t * oled, int x0, int y0, int dx, int dy, int x, int y, int step, uint8 rot
ARM GAS  C:\Users\seanj\AppData\Local\Temp\ccw9gLN6.s 			page 2


  17:oled.c        **** void PlotPoint(oled_t * oled, int x0, int y0, int x, int y, uint8 rot);
  18:oled.c        **** void BresenhamCircleAlgorithm(oled_t *oled, int xc, int yc, int rIn, int rOut, uint8 octants);
  19:oled.c        **** void PlotCircle(oled_t * oled, int xc, int yc, int x, int yIn, int yOut, uint8 octants);
  20:oled.c        **** void Swap(int* var0, int* var1);
  21:oled.c        **** 
  22:oled.c        **** //======================================
  23:oled.c        **** // initialization commands for ssd1306 driver                             
  24:oled.c        **** //======================================
  25:oled.c        **** const uint8 initCmds[] = {
  26:oled.c        ****     0x00,
  27:oled.c        ****     SSD1306_CHARGEPUMP,
  28:oled.c        ****     0x14,
  29:oled.c        ****     SSD1306_SEGREMAP | 0x1,
  30:oled.c        ****     SSD1306_COMSCANDIRECTION,
  31:oled.c        ****     SSD1306_DISPLAYON,
  32:oled.c        ****     SSD1306_MEMORYADDRESSINGMODE,   // set memory addressing mode to Horizonatal Addressing Mode
  33:oled.c        ****     0x00
  34:oled.c        **** };
  35:oled.c        **** 
  36:oled.c        **** //======================================
  37:oled.c        **** // oled_Init()
  38:oled.c        **** // this function initializes the oled_t struct
  39:oled.c        **** // and sends the necessary initialization
  40:oled.c        **** // commands to the display
  41:oled.c        **** //
  42:oled.c        **** // Parameters:
  43:oled.c        **** //     oled - pointer to a oled_t structure
  44:oled.c        **** //     slaveAddr - 7-bit I2C address
  45:oled.c        **** //     SendStart - function pointer to I2C_MasterSendStart()
  46:oled.c        **** //     SendStop - function pointer to I2C_MasterSendStop()
  47:oled.c        **** //     WriteByte - function pointer to I2C_MasterWriteByte()
  48:oled.c        **** //======================================
  49:oled.c        **** void oled_Init(oled_t * oled, uint8 slaveAddr, uint8 (*SendStart)(uint8, uint8), uint8 (*SendStop)(
  50:oled.c        **** {
  42              		.loc 1 50 0
  43              		.cfi_startproc
  44              		@ args = 4, pretend = 0, frame = 24
  45              		@ frame_needed = 1, uses_anonymous_args = 0
  46 0000 80B5     		push	{r7, lr}
  47              		.cfi_def_cfa_offset 8
  48              		.cfi_offset 7, -8
  49              		.cfi_offset 14, -4
  50 0002 86B0     		sub	sp, sp, #24
  51              		.cfi_def_cfa_offset 32
  52 0004 00AF     		add	r7, sp, #0
  53              		.cfi_def_cfa_register 7
  54 0006 F860     		str	r0, [r7, #12]
  55 0008 7A60     		str	r2, [r7, #4]
  56 000a 3B60     		str	r3, [r7]
  57 000c 0B46     		mov	r3, r1
  58 000e FB72     		strb	r3, [r7, #11]
  51:oled.c        ****     oled->slaveAddr = slaveAddr;                    // set oled's I2C address
  59              		.loc 1 51 0
  60 0010 FB68     		ldr	r3, [r7, #12]
  61 0012 FA7A     		ldrb	r2, [r7, #11]
  62 0014 1A70     		strb	r2, [r3]
  52:oled.c        ****     oled->SendStart = SendStart;                    // pass oled the I2C_MasterSendStart() function
ARM GAS  C:\Users\seanj\AppData\Local\Temp\ccw9gLN6.s 			page 3


  63              		.loc 1 52 0
  64 0016 FB68     		ldr	r3, [r7, #12]
  65 0018 7A68     		ldr	r2, [r7, #4]
  66 001a 5A60     		str	r2, [r3, #4]
  53:oled.c        ****     oled->SendStop = SendStop;                      // pass oled the I2C_MasterSendStop() function
  67              		.loc 1 53 0
  68 001c FB68     		ldr	r3, [r7, #12]
  69 001e 3A68     		ldr	r2, [r7]
  70 0020 9A60     		str	r2, [r3, #8]
  54:oled.c        ****     oled->WriteByte = WriteByte;                    // pass oled the I2C_MasterWriteByte() function
  71              		.loc 1 54 0
  72 0022 FB68     		ldr	r3, [r7, #12]
  73 0024 3A6A     		ldr	r2, [r7, #32]
  74 0026 DA60     		str	r2, [r3, #12]
  55:oled.c        ****     oled->bkColor = 0;                              // set background color
  75              		.loc 1 55 0
  76 0028 FB68     		ldr	r3, [r7, #12]
  77 002a 0022     		movs	r2, #0
  78 002c 1A74     		strb	r2, [r3, #16]
  56:oled.c        ****     oled->color = 1;                                // set foreground color
  79              		.loc 1 56 0
  80 002e FB68     		ldr	r3, [r7, #12]
  81 0030 0122     		movs	r2, #1
  82 0032 5A74     		strb	r2, [r3, #17]
  57:oled.c        ****     oled->penSize = 0;                              // set pen size
  83              		.loc 1 57 0
  84 0034 FB68     		ldr	r3, [r7, #12]
  85 0036 0022     		movs	r2, #0
  86 0038 9A74     		strb	r2, [r3, #18]
  58:oled.c        ****     oled->font = &font;                             // set font
  87              		.loc 1 58 0
  88 003a FB68     		ldr	r3, [r7, #12]
  89 003c 124A     		ldr	r2, .L4
  90 003e 5A61     		str	r2, [r3, #20]
  59:oled.c        ****     oled->bmMode = OLED_BM_NORMAL;                  // set bitmap mode
  91              		.loc 1 59 0
  92 0040 FB68     		ldr	r3, [r7, #12]
  93 0042 0022     		movs	r2, #0
  94 0044 1A76     		strb	r2, [r3, #24]
  60:oled.c        ****     oled->textMode = OLED_TEXT_TRAN;                // set text mode
  95              		.loc 1 60 0
  96 0046 FB68     		ldr	r3, [r7, #12]
  97 0048 0222     		movs	r2, #2
  98 004a 5A76     		strb	r2, [r3, #25]
  61:oled.c        **** 
  62:oled.c        ****     oled->SendStart(slaveAddr, 0x00);               // generate Start condition and send slave addr
  99              		.loc 1 62 0
 100 004c FB68     		ldr	r3, [r7, #12]
 101 004e 5B68     		ldr	r3, [r3, #4]
 102 0050 FA7A     		ldrb	r2, [r7, #11]	@ zero_extendqisi2
 103 0052 0021     		movs	r1, #0
 104 0054 1046     		mov	r0, r2
 105 0056 9847     		blx	r3
 106              	.LBB2:
  63:oled.c        ****     for (int i=0; i<(int)sizeof(initCmds); i++){  
 107              		.loc 1 63 0
 108 0058 0023     		movs	r3, #0
ARM GAS  C:\Users\seanj\AppData\Local\Temp\ccw9gLN6.s 			page 4


 109 005a 7B61     		str	r3, [r7, #20]
 110 005c 0AE0     		b	.L2
 111              	.L3:
  64:oled.c        ****         oled->WriteByte(initCmds[i]);               // send initialization commands/parameters
 112              		.loc 1 64 0 discriminator 3
 113 005e FB68     		ldr	r3, [r7, #12]
 114 0060 DB68     		ldr	r3, [r3, #12]
 115 0062 0A49     		ldr	r1, .L4+4
 116 0064 7A69     		ldr	r2, [r7, #20]
 117 0066 0A44     		add	r2, r2, r1
 118 0068 1278     		ldrb	r2, [r2]	@ zero_extendqisi2
 119 006a 1046     		mov	r0, r2
 120 006c 9847     		blx	r3
  63:oled.c        ****     for (int i=0; i<(int)sizeof(initCmds); i++){  
 121              		.loc 1 63 0 discriminator 3
 122 006e 7B69     		ldr	r3, [r7, #20]
 123 0070 0133     		adds	r3, r3, #1
 124 0072 7B61     		str	r3, [r7, #20]
 125              	.L2:
  63:oled.c        ****     for (int i=0; i<(int)sizeof(initCmds); i++){  
 126              		.loc 1 63 0 is_stmt 0 discriminator 1
 127 0074 7B69     		ldr	r3, [r7, #20]
 128 0076 072B     		cmp	r3, #7
 129 0078 F1DD     		ble	.L3
 130              	.LBE2:
  65:oled.c        ****     }   
  66:oled.c        ****     oled->SendStop();                               // generate Stop condition
 131              		.loc 1 66 0 is_stmt 1
 132 007a FB68     		ldr	r3, [r7, #12]
 133 007c 9B68     		ldr	r3, [r3, #8]
 134 007e 9847     		blx	r3
  67:oled.c        **** }
 135              		.loc 1 67 0
 136 0080 00BF     		nop
 137 0082 1837     		adds	r7, r7, #24
 138              		.cfi_def_cfa_offset 8
 139 0084 BD46     		mov	sp, r7
 140              		.cfi_def_cfa_register 13
 141              		@ sp needed
 142 0086 80BD     		pop	{r7, pc}
 143              	.L5:
 144              		.align	2
 145              	.L4:
 146 0088 00000000 		.word	font
 147 008c 00000000 		.word	initCmds
 148              		.cfi_endproc
 149              	.LFE63:
 150              		.size	oled_Init, .-oled_Init
 151              		.section	.text.oled_SetColor,"ax",%progbits
 152              		.align	2
 153              		.global	oled_SetColor
 154              		.thumb
 155              		.thumb_func
 156              		.type	oled_SetColor, %function
 157              	oled_SetColor:
 158              	.LFB64:
  68:oled.c        **** 
ARM GAS  C:\Users\seanj\AppData\Local\Temp\ccw9gLN6.s 			page 5


  69:oled.c        **** //========================================
  70:oled.c        **** // oled_SetColor()
  71:oled.c        **** // this function sets the foreground color
  72:oled.c        **** //
  73:oled.c        **** // Parameters:
  74:oled.c        **** //     oled - pointer to a oled_t structure
  75:oled.c        **** //     color: 0 (black) or 1 (white)
  76:oled.c        **** //========================================
  77:oled.c        **** void oled_SetColor(oled_t * oled, uint8 color)
  78:oled.c        **** {
 159              		.loc 1 78 0
 160              		.cfi_startproc
 161              		@ args = 0, pretend = 0, frame = 8
 162              		@ frame_needed = 1, uses_anonymous_args = 0
 163              		@ link register save eliminated.
 164 0000 80B4     		push	{r7}
 165              		.cfi_def_cfa_offset 4
 166              		.cfi_offset 7, -4
 167 0002 83B0     		sub	sp, sp, #12
 168              		.cfi_def_cfa_offset 16
 169 0004 00AF     		add	r7, sp, #0
 170              		.cfi_def_cfa_register 7
 171 0006 7860     		str	r0, [r7, #4]
 172 0008 0B46     		mov	r3, r1
 173 000a FB70     		strb	r3, [r7, #3]
  79:oled.c        ****     if ((color == 0) || (color == 1)) oled->color = color;
 174              		.loc 1 79 0
 175 000c FB78     		ldrb	r3, [r7, #3]	@ zero_extendqisi2
 176 000e 002B     		cmp	r3, #0
 177 0010 02D0     		beq	.L7
 178              		.loc 1 79 0 is_stmt 0 discriminator 2
 179 0012 FB78     		ldrb	r3, [r7, #3]	@ zero_extendqisi2
 180 0014 012B     		cmp	r3, #1
 181 0016 02D1     		bne	.L9
 182              	.L7:
 183              		.loc 1 79 0 discriminator 3
 184 0018 7B68     		ldr	r3, [r7, #4]
 185 001a FA78     		ldrb	r2, [r7, #3]
 186 001c 5A74     		strb	r2, [r3, #17]
 187              	.L9:
  80:oled.c        **** }
 188              		.loc 1 80 0 is_stmt 1
 189 001e 00BF     		nop
 190 0020 0C37     		adds	r7, r7, #12
 191              		.cfi_def_cfa_offset 4
 192 0022 BD46     		mov	sp, r7
 193              		.cfi_def_cfa_register 13
 194              		@ sp needed
 195 0024 80BC     		pop	{r7}
 196              		.cfi_restore 7
 197              		.cfi_def_cfa_offset 0
 198 0026 7047     		bx	lr
 199              		.cfi_endproc
 200              	.LFE64:
 201              		.size	oled_SetColor, .-oled_SetColor
 202              		.section	.text.oled_GetColor,"ax",%progbits
 203              		.align	2
ARM GAS  C:\Users\seanj\AppData\Local\Temp\ccw9gLN6.s 			page 6


 204              		.global	oled_GetColor
 205              		.thumb
 206              		.thumb_func
 207              		.type	oled_GetColor, %function
 208              	oled_GetColor:
 209              	.LFB65:
  81:oled.c        **** 
  82:oled.c        **** //========================================
  83:oled.c        **** // oled_GetColor()
  84:oled.c        **** // this function returns the current foreground
  85:oled.c        **** // color
  86:oled.c        **** //
  87:oled.c        **** // Parameters:
  88:oled.c        **** //     oled - pointer to a oled_t structure
  89:oled.c        **** //========================================
  90:oled.c        **** uint8 oled_GetColor(oled_t * oled)
  91:oled.c        **** {
 210              		.loc 1 91 0
 211              		.cfi_startproc
 212              		@ args = 0, pretend = 0, frame = 8
 213              		@ frame_needed = 1, uses_anonymous_args = 0
 214              		@ link register save eliminated.
 215 0000 80B4     		push	{r7}
 216              		.cfi_def_cfa_offset 4
 217              		.cfi_offset 7, -4
 218 0002 83B0     		sub	sp, sp, #12
 219              		.cfi_def_cfa_offset 16
 220 0004 00AF     		add	r7, sp, #0
 221              		.cfi_def_cfa_register 7
 222 0006 7860     		str	r0, [r7, #4]
  92:oled.c        ****     return oled->color;
 223              		.loc 1 92 0
 224 0008 7B68     		ldr	r3, [r7, #4]
 225 000a 5B7C     		ldrb	r3, [r3, #17]	@ zero_extendqisi2
  93:oled.c        **** }
 226              		.loc 1 93 0
 227 000c 1846     		mov	r0, r3
 228 000e 0C37     		adds	r7, r7, #12
 229              		.cfi_def_cfa_offset 4
 230 0010 BD46     		mov	sp, r7
 231              		.cfi_def_cfa_register 13
 232              		@ sp needed
 233 0012 80BC     		pop	{r7}
 234              		.cfi_restore 7
 235              		.cfi_def_cfa_offset 0
 236 0014 7047     		bx	lr
 237              		.cfi_endproc
 238              	.LFE65:
 239              		.size	oled_GetColor, .-oled_GetColor
 240 0016 00BF     		.section	.text.oled_SetBkColor,"ax",%progbits
 241              		.align	2
 242              		.global	oled_SetBkColor
 243              		.thumb
 244              		.thumb_func
 245              		.type	oled_SetBkColor, %function
 246              	oled_SetBkColor:
 247              	.LFB66:
ARM GAS  C:\Users\seanj\AppData\Local\Temp\ccw9gLN6.s 			page 7


  94:oled.c        **** 
  95:oled.c        **** //========================================
  96:oled.c        **** // oled_SetBkColor()
  97:oled.c        **** // this function sets the background color
  98:oled.c        **** //
  99:oled.c        **** // Parameters:
 100:oled.c        **** //     oled - pointer to a oled_t structure
 101:oled.c        **** //     bkColor: 0 (black) or 1 (white)
 102:oled.c        **** //========================================
 103:oled.c        **** void oled_SetBkColor(oled_t * oled, uint8 bkColor)
 104:oled.c        **** {
 248              		.loc 1 104 0
 249              		.cfi_startproc
 250              		@ args = 0, pretend = 0, frame = 8
 251              		@ frame_needed = 1, uses_anonymous_args = 0
 252              		@ link register save eliminated.
 253 0000 80B4     		push	{r7}
 254              		.cfi_def_cfa_offset 4
 255              		.cfi_offset 7, -4
 256 0002 83B0     		sub	sp, sp, #12
 257              		.cfi_def_cfa_offset 16
 258 0004 00AF     		add	r7, sp, #0
 259              		.cfi_def_cfa_register 7
 260 0006 7860     		str	r0, [r7, #4]
 261 0008 0B46     		mov	r3, r1
 262 000a FB70     		strb	r3, [r7, #3]
 105:oled.c        ****     if ((bkColor == 0) || (bkColor == 1)) oled->bkColor = bkColor;
 263              		.loc 1 105 0
 264 000c FB78     		ldrb	r3, [r7, #3]	@ zero_extendqisi2
 265 000e 002B     		cmp	r3, #0
 266 0010 02D0     		beq	.L13
 267              		.loc 1 105 0 is_stmt 0 discriminator 2
 268 0012 FB78     		ldrb	r3, [r7, #3]	@ zero_extendqisi2
 269 0014 012B     		cmp	r3, #1
 270 0016 02D1     		bne	.L15
 271              	.L13:
 272              		.loc 1 105 0 discriminator 3
 273 0018 7B68     		ldr	r3, [r7, #4]
 274 001a FA78     		ldrb	r2, [r7, #3]
 275 001c 1A74     		strb	r2, [r3, #16]
 276              	.L15:
 106:oled.c        **** }
 277              		.loc 1 106 0 is_stmt 1
 278 001e 00BF     		nop
 279 0020 0C37     		adds	r7, r7, #12
 280              		.cfi_def_cfa_offset 4
 281 0022 BD46     		mov	sp, r7
 282              		.cfi_def_cfa_register 13
 283              		@ sp needed
 284 0024 80BC     		pop	{r7}
 285              		.cfi_restore 7
 286              		.cfi_def_cfa_offset 0
 287 0026 7047     		bx	lr
 288              		.cfi_endproc
 289              	.LFE66:
 290              		.size	oled_SetBkColor, .-oled_SetBkColor
 291              		.section	.text.oled_GetBkColor,"ax",%progbits
ARM GAS  C:\Users\seanj\AppData\Local\Temp\ccw9gLN6.s 			page 8


 292              		.align	2
 293              		.global	oled_GetBkColor
 294              		.thumb
 295              		.thumb_func
 296              		.type	oled_GetBkColor, %function
 297              	oled_GetBkColor:
 298              	.LFB67:
 107:oled.c        **** 
 108:oled.c        **** //========================================
 109:oled.c        **** // oled_GetBkColor()
 110:oled.c        **** // this function returns the current background
 111:oled.c        **** // color
 112:oled.c        **** //
 113:oled.c        **** // Parameters:
 114:oled.c        **** //     oled - pointer to a oled_t structure
 115:oled.c        **** //========================================
 116:oled.c        **** uint8 oled_GetBkColor(oled_t * oled)
 117:oled.c        **** {
 299              		.loc 1 117 0
 300              		.cfi_startproc
 301              		@ args = 0, pretend = 0, frame = 8
 302              		@ frame_needed = 1, uses_anonymous_args = 0
 303              		@ link register save eliminated.
 304 0000 80B4     		push	{r7}
 305              		.cfi_def_cfa_offset 4
 306              		.cfi_offset 7, -4
 307 0002 83B0     		sub	sp, sp, #12
 308              		.cfi_def_cfa_offset 16
 309 0004 00AF     		add	r7, sp, #0
 310              		.cfi_def_cfa_register 7
 311 0006 7860     		str	r0, [r7, #4]
 118:oled.c        ****     return oled->bkColor;
 312              		.loc 1 118 0
 313 0008 7B68     		ldr	r3, [r7, #4]
 314 000a 1B7C     		ldrb	r3, [r3, #16]	@ zero_extendqisi2
 119:oled.c        **** }
 315              		.loc 1 119 0
 316 000c 1846     		mov	r0, r3
 317 000e 0C37     		adds	r7, r7, #12
 318              		.cfi_def_cfa_offset 4
 319 0010 BD46     		mov	sp, r7
 320              		.cfi_def_cfa_register 13
 321              		@ sp needed
 322 0012 80BC     		pop	{r7}
 323              		.cfi_restore 7
 324              		.cfi_def_cfa_offset 0
 325 0014 7047     		bx	lr
 326              		.cfi_endproc
 327              	.LFE67:
 328              		.size	oled_GetBkColor, .-oled_GetBkColor
 329 0016 00BF     		.section	.text.oled_SetPenSize,"ax",%progbits
 330              		.align	2
 331              		.global	oled_SetPenSize
 332              		.thumb
 333              		.thumb_func
 334              		.type	oled_SetPenSize, %function
 335              	oled_SetPenSize:
ARM GAS  C:\Users\seanj\AppData\Local\Temp\ccw9gLN6.s 			page 9


 336              	.LFB68:
 120:oled.c        **** 
 121:oled.c        **** //========================================
 122:oled.c        **** // oled_SetPenSize()
 123:oled.c        **** // this function sets the pen size
 124:oled.c        **** // for drawing operations. A pen size of 0
 125:oled.c        **** // draws the thinnest lines (1 pixel
 126:oled.c        **** // thick)
 127:oled.c        **** //
 128:oled.c        **** // Parameters:
 129:oled.c        **** //     oled - pointer to a oled_t structure
 130:oled.c        **** //     penSize - pen size
 131:oled.c        **** //========================================
 132:oled.c        **** void oled_SetPenSize(oled_t * oled, uint8 penSize)
 133:oled.c        **** {
 337              		.loc 1 133 0
 338              		.cfi_startproc
 339              		@ args = 0, pretend = 0, frame = 8
 340              		@ frame_needed = 1, uses_anonymous_args = 0
 341              		@ link register save eliminated.
 342 0000 80B4     		push	{r7}
 343              		.cfi_def_cfa_offset 4
 344              		.cfi_offset 7, -4
 345 0002 83B0     		sub	sp, sp, #12
 346              		.cfi_def_cfa_offset 16
 347 0004 00AF     		add	r7, sp, #0
 348              		.cfi_def_cfa_register 7
 349 0006 7860     		str	r0, [r7, #4]
 350 0008 0B46     		mov	r3, r1
 351 000a FB70     		strb	r3, [r7, #3]
 134:oled.c        ****     oled->penSize = penSize;
 352              		.loc 1 134 0
 353 000c 7B68     		ldr	r3, [r7, #4]
 354 000e FA78     		ldrb	r2, [r7, #3]
 355 0010 9A74     		strb	r2, [r3, #18]
 135:oled.c        **** }
 356              		.loc 1 135 0
 357 0012 00BF     		nop
 358 0014 0C37     		adds	r7, r7, #12
 359              		.cfi_def_cfa_offset 4
 360 0016 BD46     		mov	sp, r7
 361              		.cfi_def_cfa_register 13
 362              		@ sp needed
 363 0018 80BC     		pop	{r7}
 364              		.cfi_restore 7
 365              		.cfi_def_cfa_offset 0
 366 001a 7047     		bx	lr
 367              		.cfi_endproc
 368              	.LFE68:
 369              		.size	oled_SetPenSize, .-oled_SetPenSize
 370              		.section	.text.oled_GetPenSize,"ax",%progbits
 371              		.align	2
 372              		.global	oled_GetPenSize
 373              		.thumb
 374              		.thumb_func
 375              		.type	oled_GetPenSize, %function
 376              	oled_GetPenSize:
ARM GAS  C:\Users\seanj\AppData\Local\Temp\ccw9gLN6.s 			page 10


 377              	.LFB69:
 136:oled.c        **** 
 137:oled.c        **** //========================================
 138:oled.c        **** // oled_GetPenSize()
 139:oled.c        **** // this function returns the current pen size
 140:oled.c        **** //
 141:oled.c        **** // Parameters:
 142:oled.c        **** //     oled - pointer to a oled_t structure
 143:oled.c        **** //========================================
 144:oled.c        **** uint8 oled_GetPenSize(oled_t * oled)
 145:oled.c        **** {
 378              		.loc 1 145 0
 379              		.cfi_startproc
 380              		@ args = 0, pretend = 0, frame = 8
 381              		@ frame_needed = 1, uses_anonymous_args = 0
 382              		@ link register save eliminated.
 383 0000 80B4     		push	{r7}
 384              		.cfi_def_cfa_offset 4
 385              		.cfi_offset 7, -4
 386 0002 83B0     		sub	sp, sp, #12
 387              		.cfi_def_cfa_offset 16
 388 0004 00AF     		add	r7, sp, #0
 389              		.cfi_def_cfa_register 7
 390 0006 7860     		str	r0, [r7, #4]
 146:oled.c        ****     return oled->penSize;
 391              		.loc 1 146 0
 392 0008 7B68     		ldr	r3, [r7, #4]
 393 000a 9B7C     		ldrb	r3, [r3, #18]	@ zero_extendqisi2
 147:oled.c        **** }
 394              		.loc 1 147 0
 395 000c 1846     		mov	r0, r3
 396 000e 0C37     		adds	r7, r7, #12
 397              		.cfi_def_cfa_offset 4
 398 0010 BD46     		mov	sp, r7
 399              		.cfi_def_cfa_register 13
 400              		@ sp needed
 401 0012 80BC     		pop	{r7}
 402              		.cfi_restore 7
 403              		.cfi_def_cfa_offset 0
 404 0014 7047     		bx	lr
 405              		.cfi_endproc
 406              	.LFE69:
 407              		.size	oled_GetPenSize, .-oled_GetPenSize
 408 0016 00BF     		.section	.text.oled_SetFont,"ax",%progbits
 409              		.align	2
 410              		.global	oled_SetFont
 411              		.thumb
 412              		.thumb_func
 413              		.type	oled_SetFont, %function
 414              	oled_SetFont:
 415              	.LFB70:
 148:oled.c        **** 
 149:oled.c        **** //========================================
 150:oled.c        **** // oled_SetFont()
 151:oled.c        **** // this function sets the font for 
 152:oled.c        **** // text displaying operations (i.e. oled_DispChar()
 153:oled.c        **** // and oled_DispString())
ARM GAS  C:\Users\seanj\AppData\Local\Temp\ccw9gLN6.s 			page 11


 154:oled.c        **** //
 155:oled.c        **** // Parameters:
 156:oled.c        **** //     oled - pointer to a oled_t structure
 157:oled.c        **** //     font - pointer to a font_t structure
 158:oled.c        **** //========================================
 159:oled.c        **** void oled_SetFont(oled_t * oled, font_t * font)
 160:oled.c        **** {
 416              		.loc 1 160 0
 417              		.cfi_startproc
 418              		@ args = 0, pretend = 0, frame = 8
 419              		@ frame_needed = 1, uses_anonymous_args = 0
 420              		@ link register save eliminated.
 421 0000 80B4     		push	{r7}
 422              		.cfi_def_cfa_offset 4
 423              		.cfi_offset 7, -4
 424 0002 83B0     		sub	sp, sp, #12
 425              		.cfi_def_cfa_offset 16
 426 0004 00AF     		add	r7, sp, #0
 427              		.cfi_def_cfa_register 7
 428 0006 7860     		str	r0, [r7, #4]
 429 0008 3960     		str	r1, [r7]
 161:oled.c        ****     oled->font = font;
 430              		.loc 1 161 0
 431 000a 7B68     		ldr	r3, [r7, #4]
 432 000c 3A68     		ldr	r2, [r7]
 433 000e 5A61     		str	r2, [r3, #20]
 162:oled.c        **** }
 434              		.loc 1 162 0
 435 0010 00BF     		nop
 436 0012 0C37     		adds	r7, r7, #12
 437              		.cfi_def_cfa_offset 4
 438 0014 BD46     		mov	sp, r7
 439              		.cfi_def_cfa_register 13
 440              		@ sp needed
 441 0016 80BC     		pop	{r7}
 442              		.cfi_restore 7
 443              		.cfi_def_cfa_offset 0
 444 0018 7047     		bx	lr
 445              		.cfi_endproc
 446              	.LFE70:
 447              		.size	oled_SetFont, .-oled_SetFont
 448 001a 00BF     		.section	.text.oled_SetBmMode,"ax",%progbits
 449              		.align	2
 450              		.global	oled_SetBmMode
 451              		.thumb
 452              		.thumb_func
 453              		.type	oled_SetBmMode, %function
 454              	oled_SetBmMode:
 455              	.LFB71:
 163:oled.c        **** 
 164:oled.c        **** //========================================
 165:oled.c        **** // oled_SetBmMode()
 166:oled.c        **** // this function sets the bitmap display
 167:oled.c        **** // mode
 168:oled.c        **** //
 169:oled.c        **** // Parameters:
 170:oled.c        **** //     oled - pointer to a oled_t structure
ARM GAS  C:\Users\seanj\AppData\Local\Temp\ccw9gLN6.s 			page 12


 171:oled.c        **** //     bmMode - bitmap display mode
 172:oled.c        **** //========================================
 173:oled.c        **** void oled_SetBmMode(oled_t * oled, uint8 bmMode)
 174:oled.c        **** {
 456              		.loc 1 174 0
 457              		.cfi_startproc
 458              		@ args = 0, pretend = 0, frame = 8
 459              		@ frame_needed = 1, uses_anonymous_args = 0
 460              		@ link register save eliminated.
 461 0000 80B4     		push	{r7}
 462              		.cfi_def_cfa_offset 4
 463              		.cfi_offset 7, -4
 464 0002 83B0     		sub	sp, sp, #12
 465              		.cfi_def_cfa_offset 16
 466 0004 00AF     		add	r7, sp, #0
 467              		.cfi_def_cfa_register 7
 468 0006 7860     		str	r0, [r7, #4]
 469 0008 0B46     		mov	r3, r1
 470 000a FB70     		strb	r3, [r7, #3]
 175:oled.c        ****     if ((bmMode == OLED_BM_NORMAL) || 
 471              		.loc 1 175 0
 472 000c FB78     		ldrb	r3, [r7, #3]	@ zero_extendqisi2
 473 000e 002B     		cmp	r3, #0
 474 0010 0ED0     		beq	.L23
 475              		.loc 1 175 0 is_stmt 0 discriminator 1
 476 0012 FB78     		ldrb	r3, [r7, #3]	@ zero_extendqisi2
 477 0014 012B     		cmp	r3, #1
 478 0016 0BD0     		beq	.L23
 176:oled.c        ****         (bmMode == OLED_BM_INV) ||
 479              		.loc 1 176 0 is_stmt 1
 480 0018 FB78     		ldrb	r3, [r7, #3]	@ zero_extendqisi2
 481 001a 022B     		cmp	r3, #2
 482 001c 08D0     		beq	.L23
 177:oled.c        ****         (bmMode == OLED_BM_WHITE_TRAN) || 
 483              		.loc 1 177 0
 484 001e FB78     		ldrb	r3, [r7, #3]	@ zero_extendqisi2
 485 0020 032B     		cmp	r3, #3
 486 0022 05D0     		beq	.L23
 178:oled.c        ****         (bmMode == OLED_BM_BLACK_TRAN) ||
 487              		.loc 1 178 0
 488 0024 FB78     		ldrb	r3, [r7, #3]	@ zero_extendqisi2
 489 0026 042B     		cmp	r3, #4
 490 0028 02D0     		beq	.L23
 179:oled.c        ****         (bmMode == OLED_BM_WHITE_FILL) || 
 491              		.loc 1 179 0
 492 002a FB78     		ldrb	r3, [r7, #3]	@ zero_extendqisi2
 493 002c 052B     		cmp	r3, #5
 494 002e 02D1     		bne	.L25
 495              	.L23:
 180:oled.c        ****         (bmMode == OLED_BM_BLACK_FILL)) oled->bmMode = bmMode;
 496              		.loc 1 180 0
 497 0030 7B68     		ldr	r3, [r7, #4]
 498 0032 FA78     		ldrb	r2, [r7, #3]
 499 0034 1A76     		strb	r2, [r3, #24]
 500              	.L25:
 181:oled.c        **** }
 501              		.loc 1 181 0
ARM GAS  C:\Users\seanj\AppData\Local\Temp\ccw9gLN6.s 			page 13


 502 0036 00BF     		nop
 503 0038 0C37     		adds	r7, r7, #12
 504              		.cfi_def_cfa_offset 4
 505 003a BD46     		mov	sp, r7
 506              		.cfi_def_cfa_register 13
 507              		@ sp needed
 508 003c 80BC     		pop	{r7}
 509              		.cfi_restore 7
 510              		.cfi_def_cfa_offset 0
 511 003e 7047     		bx	lr
 512              		.cfi_endproc
 513              	.LFE71:
 514              		.size	oled_SetBmMode, .-oled_SetBmMode
 515              		.section	.text.oled_GetBmMode,"ax",%progbits
 516              		.align	2
 517              		.global	oled_GetBmMode
 518              		.thumb
 519              		.thumb_func
 520              		.type	oled_GetBmMode, %function
 521              	oled_GetBmMode:
 522              	.LFB72:
 182:oled.c        **** 
 183:oled.c        **** //========================================
 184:oled.c        **** // oled_GetBmMode()
 185:oled.c        **** // this function returns the current bitmap 
 186:oled.c        **** // display mode
 187:oled.c        **** //
 188:oled.c        **** // Parameters:
 189:oled.c        **** //     oled - pointer to a oled_t structure
 190:oled.c        **** //========================================
 191:oled.c        **** uint8 oled_GetBmMode(oled_t * oled)
 192:oled.c        **** {
 523              		.loc 1 192 0
 524              		.cfi_startproc
 525              		@ args = 0, pretend = 0, frame = 8
 526              		@ frame_needed = 1, uses_anonymous_args = 0
 527              		@ link register save eliminated.
 528 0000 80B4     		push	{r7}
 529              		.cfi_def_cfa_offset 4
 530              		.cfi_offset 7, -4
 531 0002 83B0     		sub	sp, sp, #12
 532              		.cfi_def_cfa_offset 16
 533 0004 00AF     		add	r7, sp, #0
 534              		.cfi_def_cfa_register 7
 535 0006 7860     		str	r0, [r7, #4]
 193:oled.c        ****     return oled->bmMode;
 536              		.loc 1 193 0
 537 0008 7B68     		ldr	r3, [r7, #4]
 538 000a 1B7E     		ldrb	r3, [r3, #24]	@ zero_extendqisi2
 194:oled.c        **** }
 539              		.loc 1 194 0
 540 000c 1846     		mov	r0, r3
 541 000e 0C37     		adds	r7, r7, #12
 542              		.cfi_def_cfa_offset 4
 543 0010 BD46     		mov	sp, r7
 544              		.cfi_def_cfa_register 13
 545              		@ sp needed
ARM GAS  C:\Users\seanj\AppData\Local\Temp\ccw9gLN6.s 			page 14


 546 0012 80BC     		pop	{r7}
 547              		.cfi_restore 7
 548              		.cfi_def_cfa_offset 0
 549 0014 7047     		bx	lr
 550              		.cfi_endproc
 551              	.LFE72:
 552              		.size	oled_GetBmMode, .-oled_GetBmMode
 553 0016 00BF     		.section	.text.oled_SetTextMode,"ax",%progbits
 554              		.align	2
 555              		.global	oled_SetTextMode
 556              		.thumb
 557              		.thumb_func
 558              		.type	oled_SetTextMode, %function
 559              	oled_SetTextMode:
 560              	.LFB73:
 195:oled.c        **** 
 196:oled.c        **** //========================================
 197:oled.c        **** // oled_SetTextMode()
 198:oled.c        **** // this function sets the text display
 199:oled.c        **** // mode
 200:oled.c        **** //
 201:oled.c        **** // Parameters:
 202:oled.c        **** //     oled - pointer to a oled_t structure
 203:oled.c        **** //     textMode - text display mode
 204:oled.c        **** //========================================
 205:oled.c        **** void oled_SetTextMode(oled_t * oled, uint8 textMode)
 206:oled.c        **** {
 561              		.loc 1 206 0
 562              		.cfi_startproc
 563              		@ args = 0, pretend = 0, frame = 8
 564              		@ frame_needed = 1, uses_anonymous_args = 0
 565              		@ link register save eliminated.
 566 0000 80B4     		push	{r7}
 567              		.cfi_def_cfa_offset 4
 568              		.cfi_offset 7, -4
 569 0002 83B0     		sub	sp, sp, #12
 570              		.cfi_def_cfa_offset 16
 571 0004 00AF     		add	r7, sp, #0
 572              		.cfi_def_cfa_register 7
 573 0006 7860     		str	r0, [r7, #4]
 574 0008 0B46     		mov	r3, r1
 575 000a FB70     		strb	r3, [r7, #3]
 207:oled.c        ****     if ((textMode == OLED_TEXT_TRAN) ||
 576              		.loc 1 207 0
 577 000c FB78     		ldrb	r3, [r7, #3]	@ zero_extendqisi2
 578 000e 022B     		cmp	r3, #2
 579 0010 02D0     		beq	.L29
 580              		.loc 1 207 0 is_stmt 0 discriminator 1
 581 0012 FB78     		ldrb	r3, [r7, #3]	@ zero_extendqisi2
 582 0014 022B     		cmp	r3, #2
 583 0016 02D1     		bne	.L31
 584              	.L29:
 208:oled.c        ****         (textMode == OLED_TEXT_FILL)) oled->textMode = textMode;
 585              		.loc 1 208 0 is_stmt 1
 586 0018 7B68     		ldr	r3, [r7, #4]
 587 001a FA78     		ldrb	r2, [r7, #3]
 588 001c 5A76     		strb	r2, [r3, #25]
ARM GAS  C:\Users\seanj\AppData\Local\Temp\ccw9gLN6.s 			page 15


 589              	.L31:
 209:oled.c        **** }
 590              		.loc 1 209 0
 591 001e 00BF     		nop
 592 0020 0C37     		adds	r7, r7, #12
 593              		.cfi_def_cfa_offset 4
 594 0022 BD46     		mov	sp, r7
 595              		.cfi_def_cfa_register 13
 596              		@ sp needed
 597 0024 80BC     		pop	{r7}
 598              		.cfi_restore 7
 599              		.cfi_def_cfa_offset 0
 600 0026 7047     		bx	lr
 601              		.cfi_endproc
 602              	.LFE73:
 603              		.size	oled_SetTextMode, .-oled_SetTextMode
 604              		.section	.text.oled_GetTextMode,"ax",%progbits
 605              		.align	2
 606              		.global	oled_GetTextMode
 607              		.thumb
 608              		.thumb_func
 609              		.type	oled_GetTextMode, %function
 610              	oled_GetTextMode:
 611              	.LFB74:
 210:oled.c        **** 
 211:oled.c        **** //========================================
 212:oled.c        **** // oled_GetTextMode()
 213:oled.c        **** // this function returns the text display
 214:oled.c        **** // mode
 215:oled.c        **** //
 216:oled.c        **** // Parameters:
 217:oled.c        **** //     oled - pointer to a oled_t structure
 218:oled.c        **** //========================================
 219:oled.c        **** uint8 oled_GetTextMode(oled_t * oled)
 220:oled.c        **** {
 612              		.loc 1 220 0
 613              		.cfi_startproc
 614              		@ args = 0, pretend = 0, frame = 8
 615              		@ frame_needed = 1, uses_anonymous_args = 0
 616              		@ link register save eliminated.
 617 0000 80B4     		push	{r7}
 618              		.cfi_def_cfa_offset 4
 619              		.cfi_offset 7, -4
 620 0002 83B0     		sub	sp, sp, #12
 621              		.cfi_def_cfa_offset 16
 622 0004 00AF     		add	r7, sp, #0
 623              		.cfi_def_cfa_register 7
 624 0006 7860     		str	r0, [r7, #4]
 221:oled.c        ****     return oled->textMode;
 625              		.loc 1 221 0
 626 0008 7B68     		ldr	r3, [r7, #4]
 627 000a 5B7E     		ldrb	r3, [r3, #25]	@ zero_extendqisi2
 222:oled.c        **** }
 628              		.loc 1 222 0
 629 000c 1846     		mov	r0, r3
 630 000e 0C37     		adds	r7, r7, #12
 631              		.cfi_def_cfa_offset 4
ARM GAS  C:\Users\seanj\AppData\Local\Temp\ccw9gLN6.s 			page 16


 632 0010 BD46     		mov	sp, r7
 633              		.cfi_def_cfa_register 13
 634              		@ sp needed
 635 0012 80BC     		pop	{r7}
 636              		.cfi_restore 7
 637              		.cfi_def_cfa_offset 0
 638 0014 7047     		bx	lr
 639              		.cfi_endproc
 640              	.LFE74:
 641              		.size	oled_GetTextMode, .-oled_GetTextMode
 642 0016 00BF     		.section	.text.oled_Clear,"ax",%progbits
 643              		.align	2
 644              		.global	oled_Clear
 645              		.thumb
 646              		.thumb_func
 647              		.type	oled_Clear, %function
 648              	oled_Clear:
 649              	.LFB75:
 223:oled.c        **** 
 224:oled.c        **** //========================================
 225:oled.c        **** // oled_Clear()
 226:oled.c        **** // this functions clears the screan (fills it
 227:oled.c        **** // with the background color)
 228:oled.c        **** //
 229:oled.c        **** // Parameters:
 230:oled.c        **** //     oled - pointer to a oled_t structure
 231:oled.c        **** //========================================
 232:oled.c        **** void oled_Clear(oled_t * oled)
 233:oled.c        **** {
 650              		.loc 1 233 0
 651              		.cfi_startproc
 652              		@ args = 0, pretend = 0, frame = 8
 653              		@ frame_needed = 1, uses_anonymous_args = 0
 654 0000 80B5     		push	{r7, lr}
 655              		.cfi_def_cfa_offset 8
 656              		.cfi_offset 7, -8
 657              		.cfi_offset 14, -4
 658 0002 84B0     		sub	sp, sp, #16
 659              		.cfi_def_cfa_offset 24
 660 0004 02AF     		add	r7, sp, #8
 661              		.cfi_def_cfa 7, 16
 662 0006 7860     		str	r0, [r7, #4]
 234:oled.c        ****     WriteGRAM(oled, 0, 0, OLED_WIDTH-1, OLED_HEIGHT-1, oled->bkColor);      // fill screen with bac
 663              		.loc 1 234 0
 664 0008 7B68     		ldr	r3, [r7, #4]
 665 000a 1B7C     		ldrb	r3, [r3, #16]	@ zero_extendqisi2
 666 000c 0193     		str	r3, [sp, #4]
 667 000e 3F23     		movs	r3, #63
 668 0010 0093     		str	r3, [sp]
 669 0012 7F23     		movs	r3, #127
 670 0014 0022     		movs	r2, #0
 671 0016 0021     		movs	r1, #0
 672 0018 7868     		ldr	r0, [r7, #4]
 673 001a FFF7FEFF 		bl	WriteGRAM
 235:oled.c        **** }
 674              		.loc 1 235 0
 675 001e 00BF     		nop
ARM GAS  C:\Users\seanj\AppData\Local\Temp\ccw9gLN6.s 			page 17


 676 0020 0837     		adds	r7, r7, #8
 677              		.cfi_def_cfa_offset 8
 678 0022 BD46     		mov	sp, r7
 679              		.cfi_def_cfa_register 13
 680              		@ sp needed
 681 0024 80BD     		pop	{r7, pc}
 682              		.cfi_endproc
 683              	.LFE75:
 684              		.size	oled_Clear, .-oled_Clear
 685 0026 00BF     		.section	.text.oled_ClearRect,"ax",%progbits
 686              		.align	2
 687              		.global	oled_ClearRect
 688              		.thumb
 689              		.thumb_func
 690              		.type	oled_ClearRect, %function
 691              	oled_ClearRect:
 692              	.LFB76:
 236:oled.c        **** 
 237:oled.c        **** //========================================
 238:oled.c        **** // oled_ClearRect()
 239:oled.c        **** // this functions clears a rectangle defined by
 240:oled.c        **** // its upper left corner (x0, y0) and lower right
 241:oled.c        **** // corner (x1, y1)
 242:oled.c        **** // 
 243:oled.c        **** //
 244:oled.c        **** // Parameters:
 245:oled.c        **** //     oled - pointer to a oled_t structure
 246:oled.c        **** //     x0 - upper left x-coordinate
 247:oled.c        **** //     y0 - upper left y-coordinate
 248:oled.c        **** //     x1 - lower right x-coordinate
 249:oled.c        **** //     y1 - lower right y-coordinate
 250:oled.c        **** //========================================
 251:oled.c        **** void oled_ClearRect(oled_t * oled, int x0, int y0, int x1, int y1)
 252:oled.c        **** {
 693              		.loc 1 252 0
 694              		.cfi_startproc
 695              		@ args = 4, pretend = 0, frame = 16
 696              		@ frame_needed = 1, uses_anonymous_args = 0
 697 0000 80B5     		push	{r7, lr}
 698              		.cfi_def_cfa_offset 8
 699              		.cfi_offset 7, -8
 700              		.cfi_offset 14, -4
 701 0002 86B0     		sub	sp, sp, #24
 702              		.cfi_def_cfa_offset 32
 703 0004 02AF     		add	r7, sp, #8
 704              		.cfi_def_cfa 7, 24
 705 0006 F860     		str	r0, [r7, #12]
 706 0008 B960     		str	r1, [r7, #8]
 707 000a 7A60     		str	r2, [r7, #4]
 708 000c 3B60     		str	r3, [r7]
 253:oled.c        ****     WriteGRAM(oled, x0, y0, x1, y1, oled->bkColor);     // clear rectangle   
 709              		.loc 1 253 0
 710 000e FB68     		ldr	r3, [r7, #12]
 711 0010 1B7C     		ldrb	r3, [r3, #16]	@ zero_extendqisi2
 712 0012 0193     		str	r3, [sp, #4]
 713 0014 BB69     		ldr	r3, [r7, #24]
 714 0016 0093     		str	r3, [sp]
ARM GAS  C:\Users\seanj\AppData\Local\Temp\ccw9gLN6.s 			page 18


 715 0018 3B68     		ldr	r3, [r7]
 716 001a 7A68     		ldr	r2, [r7, #4]
 717 001c B968     		ldr	r1, [r7, #8]
 718 001e F868     		ldr	r0, [r7, #12]
 719 0020 FFF7FEFF 		bl	WriteGRAM
 254:oled.c        **** }
 720              		.loc 1 254 0
 721 0024 00BF     		nop
 722 0026 1037     		adds	r7, r7, #16
 723              		.cfi_def_cfa_offset 8
 724 0028 BD46     		mov	sp, r7
 725              		.cfi_def_cfa_register 13
 726              		@ sp needed
 727 002a 80BD     		pop	{r7, pc}
 728              		.cfi_endproc
 729              	.LFE76:
 730              		.size	oled_ClearRect, .-oled_ClearRect
 731              		.section	.text.oled_DrawPixel,"ax",%progbits
 732              		.align	2
 733              		.global	oled_DrawPixel
 734              		.thumb
 735              		.thumb_func
 736              		.type	oled_DrawPixel, %function
 737              	oled_DrawPixel:
 738              	.LFB77:
 255:oled.c        **** 
 256:oled.c        **** //========================================
 257:oled.c        **** // oled_DrawPixel()
 258:oled.c        **** // this function fills the pixel located at (x, y)
 259:oled.c        **** // with the forground color.
 260:oled.c        **** //
 261:oled.c        **** // Parameters:
 262:oled.c        **** //     oled - pointer to a oled_t structure
 263:oled.c        **** //     x - x-coordinate of pixel
 264:oled.c        **** //     y - y-coordinate of pixel
 265:oled.c        **** //========================================
 266:oled.c        **** void oled_DrawPixel(oled_t * oled, int x, int y)
 267:oled.c        **** {
 739              		.loc 1 267 0
 740              		.cfi_startproc
 741              		@ args = 0, pretend = 0, frame = 16
 742              		@ frame_needed = 1, uses_anonymous_args = 0
 743 0000 80B5     		push	{r7, lr}
 744              		.cfi_def_cfa_offset 8
 745              		.cfi_offset 7, -8
 746              		.cfi_offset 14, -4
 747 0002 86B0     		sub	sp, sp, #24
 748              		.cfi_def_cfa_offset 32
 749 0004 02AF     		add	r7, sp, #8
 750              		.cfi_def_cfa 7, 24
 751 0006 F860     		str	r0, [r7, #12]
 752 0008 B960     		str	r1, [r7, #8]
 753 000a 7A60     		str	r2, [r7, #4]
 268:oled.c        ****     WriteGRAM(oled, x, y, x, y, oled->color);       // draw pixel
 754              		.loc 1 268 0
 755 000c FB68     		ldr	r3, [r7, #12]
 756 000e 5B7C     		ldrb	r3, [r3, #17]	@ zero_extendqisi2
ARM GAS  C:\Users\seanj\AppData\Local\Temp\ccw9gLN6.s 			page 19


 757 0010 0193     		str	r3, [sp, #4]
 758 0012 7B68     		ldr	r3, [r7, #4]
 759 0014 0093     		str	r3, [sp]
 760 0016 BB68     		ldr	r3, [r7, #8]
 761 0018 7A68     		ldr	r2, [r7, #4]
 762 001a B968     		ldr	r1, [r7, #8]
 763 001c F868     		ldr	r0, [r7, #12]
 764 001e FFF7FEFF 		bl	WriteGRAM
 269:oled.c        **** } 
 765              		.loc 1 269 0
 766 0022 00BF     		nop
 767 0024 1037     		adds	r7, r7, #16
 768              		.cfi_def_cfa_offset 8
 769 0026 BD46     		mov	sp, r7
 770              		.cfi_def_cfa_register 13
 771              		@ sp needed
 772 0028 80BD     		pop	{r7, pc}
 773              		.cfi_endproc
 774              	.LFE77:
 775              		.size	oled_DrawPixel, .-oled_DrawPixel
 776 002a 00BF     		.section	.text.oled_DrawLine,"ax",%progbits
 777              		.align	2
 778              		.global	oled_DrawLine
 779              		.thumb
 780              		.thumb_func
 781              		.type	oled_DrawLine, %function
 782              	oled_DrawLine:
 783              	.LFB78:
 270:oled.c        **** 
 271:oled.c        **** //========================================
 272:oled.c        **** // oled_DrawLine()
 273:oled.c        **** // this functions draws a line between the 
 274:oled.c        **** // points (x0, y0) and (x1, y1)
 275:oled.c        **** //
 276:oled.c        **** // Parameters:
 277:oled.c        **** //     oled - pointer to a oled_t structure
 278:oled.c        **** //     x0 - x-coordinate of the first point
 279:oled.c        **** //     y0 - y-coordinate of the first point
 280:oled.c        **** //     x1 - x-coordinate of the second point
 281:oled.c        **** //     y1 - y-coordinate of the second point
 282:oled.c        **** //========================================
 283:oled.c        **** void oled_DrawLine(oled_t * oled, int x0, int y0, int x1, int y1)
 284:oled.c        **** {
 784              		.loc 1 284 0
 785              		.cfi_startproc
 786              		@ args = 4, pretend = 0, frame = 24
 787              		@ frame_needed = 1, uses_anonymous_args = 0
 788 0000 90B5     		push	{r4, r7, lr}
 789              		.cfi_def_cfa_offset 12
 790              		.cfi_offset 4, -12
 791              		.cfi_offset 7, -8
 792              		.cfi_offset 14, -4
 793 0002 89B0     		sub	sp, sp, #36
 794              		.cfi_def_cfa_offset 48
 795 0004 02AF     		add	r7, sp, #8
 796              		.cfi_def_cfa 7, 40
 797 0006 F860     		str	r0, [r7, #12]
ARM GAS  C:\Users\seanj\AppData\Local\Temp\ccw9gLN6.s 			page 20


 798 0008 B960     		str	r1, [r7, #8]
 799 000a 7A60     		str	r2, [r7, #4]
 800 000c 3B60     		str	r3, [r7]
 285:oled.c        ****     if (x0 == x1){                              // check if line is vertical
 801              		.loc 1 285 0
 802 000e BA68     		ldr	r2, [r7, #8]
 803 0010 3B68     		ldr	r3, [r7]
 804 0012 9A42     		cmp	r2, r3
 805 0014 06D1     		bne	.L38
 286:oled.c        ****         DrawVLine(oled, x0, y1, y0);            // draw vertical line
 806              		.loc 1 286 0
 807 0016 B968     		ldr	r1, [r7, #8]
 808 0018 BA6A     		ldr	r2, [r7, #40]
 809 001a 7B68     		ldr	r3, [r7, #4]
 810 001c F868     		ldr	r0, [r7, #12]
 811 001e FFF7FEFF 		bl	DrawVLine
 287:oled.c        ****         return;
 812              		.loc 1 287 0
 813 0022 77E0     		b	.L37
 814              	.L38:
 288:oled.c        ****     }
 289:oled.c        ****     if (y0 == y1){                              // check if line is horizontal
 815              		.loc 1 289 0
 816 0024 7A68     		ldr	r2, [r7, #4]
 817 0026 BB6A     		ldr	r3, [r7, #40]
 818 0028 9A42     		cmp	r2, r3
 819 002a 06D1     		bne	.L40
 290:oled.c        ****         DrawHLine(oled, y0, x1, x0);            // draw horizontal line
 820              		.loc 1 290 0
 821 002c 7968     		ldr	r1, [r7, #4]
 822 002e 3A68     		ldr	r2, [r7]
 823 0030 BB68     		ldr	r3, [r7, #8]
 824 0032 F868     		ldr	r0, [r7, #12]
 825 0034 FFF7FEFF 		bl	DrawHLine
 291:oled.c        ****         return;
 826              		.loc 1 291 0
 827 0038 6CE0     		b	.L37
 828              	.L40:
 292:oled.c        ****     }
 293:oled.c        ****     if (x1 < x0){                               // check if x0 <= x1 (if not, swap coordinates)
 829              		.loc 1 293 0
 830 003a 3A68     		ldr	r2, [r7]
 831 003c BB68     		ldr	r3, [r7, #8]
 832 003e 9A42     		cmp	r2, r3
 833 0040 0CDA     		bge	.L41
 294:oled.c        ****         Swap(&x0, &x1);                         // swap x coordinates
 834              		.loc 1 294 0
 835 0042 3A46     		mov	r2, r7
 836 0044 07F10803 		add	r3, r7, #8
 837 0048 1146     		mov	r1, r2
 838 004a 1846     		mov	r0, r3
 839 004c FFF7FEFF 		bl	Swap
 295:oled.c        ****         Swap(&y0, &y1);                         // swap y coordinates
 840              		.loc 1 295 0
 841 0050 3B1D     		adds	r3, r7, #4
 842 0052 07F12801 		add	r1, r7, #40
 843 0056 1846     		mov	r0, r3
ARM GAS  C:\Users\seanj\AppData\Local\Temp\ccw9gLN6.s 			page 21


 844 0058 FFF7FEFF 		bl	Swap
 845              	.L41:
 296:oled.c        ****     }
 297:oled.c        ****                                                 // Bresenham's line algorith assumes the slope of t
 298:oled.c        ****                                                 // swap coordinates to put the line in this form. r
 299:oled.c        ****     uint8 rot = 1;                              // 0 <= slope <= 1
 846              		.loc 1 299 0
 847 005c 0123     		movs	r3, #1
 848 005e FB75     		strb	r3, [r7, #23]
 300:oled.c        ****     if (x1-x0 < y1-y0){                         // 1 < slope
 849              		.loc 1 300 0
 850 0060 3A68     		ldr	r2, [r7]
 851 0062 BB68     		ldr	r3, [r7, #8]
 852 0064 D21A     		subs	r2, r2, r3
 853 0066 B96A     		ldr	r1, [r7, #40]
 854 0068 7B68     		ldr	r3, [r7, #4]
 855 006a CB1A     		subs	r3, r1, r3
 856 006c 9A42     		cmp	r2, r3
 857 006e 0FDA     		bge	.L42
 301:oled.c        ****        rot = 0;
 858              		.loc 1 301 0
 859 0070 0023     		movs	r3, #0
 860 0072 FB75     		strb	r3, [r7, #23]
 302:oled.c        ****        Swap(&x0, &y0);
 861              		.loc 1 302 0
 862 0074 3A1D     		adds	r2, r7, #4
 863 0076 07F10803 		add	r3, r7, #8
 864 007a 1146     		mov	r1, r2
 865 007c 1846     		mov	r0, r3
 866 007e FFF7FEFF 		bl	Swap
 303:oled.c        ****        Swap(&x1, &y1);
 867              		.loc 1 303 0
 868 0082 3B46     		mov	r3, r7
 869 0084 07F12801 		add	r1, r7, #40
 870 0088 1846     		mov	r0, r3
 871 008a FFF7FEFF 		bl	Swap
 872 008e 31E0     		b	.L43
 873              	.L42:
 304:oled.c        ****     }                            
 305:oled.c        ****     else if ((x1-x0 >= y0-y1) && (y0 > y1)){    // -1 <= slope < 0
 874              		.loc 1 305 0
 875 0090 3A68     		ldr	r2, [r7]
 876 0092 BB68     		ldr	r3, [r7, #8]
 877 0094 D21A     		subs	r2, r2, r3
 878 0096 7968     		ldr	r1, [r7, #4]
 879 0098 BB6A     		ldr	r3, [r7, #40]
 880 009a CB1A     		subs	r3, r1, r3
 881 009c 9A42     		cmp	r2, r3
 882 009e 0CDB     		blt	.L44
 883              		.loc 1 305 0 is_stmt 0 discriminator 1
 884 00a0 7A68     		ldr	r2, [r7, #4]
 885 00a2 BB6A     		ldr	r3, [r7, #40]
 886 00a4 9A42     		cmp	r2, r3
 887 00a6 08DD     		ble	.L44
 306:oled.c        ****         rot = 2;  
 888              		.loc 1 306 0 is_stmt 1
 889 00a8 0223     		movs	r3, #2
ARM GAS  C:\Users\seanj\AppData\Local\Temp\ccw9gLN6.s 			page 22


 890 00aa FB75     		strb	r3, [r7, #23]
 307:oled.c        ****         y0 = -y0;                                   
 891              		.loc 1 307 0
 892 00ac 7B68     		ldr	r3, [r7, #4]
 893 00ae 5B42     		negs	r3, r3
 894 00b0 7B60     		str	r3, [r7, #4]
 308:oled.c        ****         y1 = -y1;
 895              		.loc 1 308 0
 896 00b2 BB6A     		ldr	r3, [r7, #40]
 897 00b4 5B42     		negs	r3, r3
 898 00b6 BB62     		str	r3, [r7, #40]
 899 00b8 1CE0     		b	.L43
 900              	.L44:
 309:oled.c        ****     }
 310:oled.c        ****     else if (x1-x0 < y0-y1){                    // slope < -1
 901              		.loc 1 310 0
 902 00ba 3A68     		ldr	r2, [r7]
 903 00bc BB68     		ldr	r3, [r7, #8]
 904 00be D21A     		subs	r2, r2, r3
 905 00c0 7968     		ldr	r1, [r7, #4]
 906 00c2 BB6A     		ldr	r3, [r7, #40]
 907 00c4 CB1A     		subs	r3, r1, r3
 908 00c6 9A42     		cmp	r2, r3
 909 00c8 14DA     		bge	.L43
 311:oled.c        ****         rot = 3; 
 910              		.loc 1 311 0
 911 00ca 0323     		movs	r3, #3
 912 00cc FB75     		strb	r3, [r7, #23]
 312:oled.c        ****         y0 = -y0;                                   
 913              		.loc 1 312 0
 914 00ce 7B68     		ldr	r3, [r7, #4]
 915 00d0 5B42     		negs	r3, r3
 916 00d2 7B60     		str	r3, [r7, #4]
 313:oled.c        ****         y1 = -y1;
 917              		.loc 1 313 0
 918 00d4 BB6A     		ldr	r3, [r7, #40]
 919 00d6 5B42     		negs	r3, r3
 920 00d8 BB62     		str	r3, [r7, #40]
 314:oled.c        ****         Swap(&x0, &y0);                             
 921              		.loc 1 314 0
 922 00da 3A1D     		adds	r2, r7, #4
 923 00dc 07F10803 		add	r3, r7, #8
 924 00e0 1146     		mov	r1, r2
 925 00e2 1846     		mov	r0, r3
 926 00e4 FFF7FEFF 		bl	Swap
 315:oled.c        ****         Swap(&x1, &y1);
 927              		.loc 1 315 0
 928 00e8 3B46     		mov	r3, r7
 929 00ea 07F12801 		add	r1, r7, #40
 930 00ee 1846     		mov	r0, r3
 931 00f0 FFF7FEFF 		bl	Swap
 932              	.L43:
 316:oled.c        ****     }
 317:oled.c        ****     
 318:oled.c        ****     BresenhamLineAlgorithm(oled, x0, y0, x1-x0, y1-y0, rot);        // draw line using the Bresenha
 933              		.loc 1 318 0
 934 00f4 B968     		ldr	r1, [r7, #8]
ARM GAS  C:\Users\seanj\AppData\Local\Temp\ccw9gLN6.s 			page 23


 935 00f6 7868     		ldr	r0, [r7, #4]
 936 00f8 3A68     		ldr	r2, [r7]
 937 00fa BB68     		ldr	r3, [r7, #8]
 938 00fc D41A     		subs	r4, r2, r3
 939 00fe BA6A     		ldr	r2, [r7, #40]
 940 0100 7B68     		ldr	r3, [r7, #4]
 941 0102 D31A     		subs	r3, r2, r3
 942 0104 FA7D     		ldrb	r2, [r7, #23]	@ zero_extendqisi2
 943 0106 0192     		str	r2, [sp, #4]
 944 0108 0093     		str	r3, [sp]
 945 010a 2346     		mov	r3, r4
 946 010c 0246     		mov	r2, r0
 947 010e F868     		ldr	r0, [r7, #12]
 948 0110 FFF7FEFF 		bl	BresenhamLineAlgorithm
 949              	.L37:
 319:oled.c        **** }
 950              		.loc 1 319 0
 951 0114 1C37     		adds	r7, r7, #28
 952              		.cfi_def_cfa_offset 12
 953 0116 BD46     		mov	sp, r7
 954              		.cfi_def_cfa_register 13
 955              		@ sp needed
 956 0118 90BD     		pop	{r4, r7, pc}
 957              		.cfi_endproc
 958              	.LFE78:
 959              		.size	oled_DrawLine, .-oled_DrawLine
 960 011a 00BF     		.section	.text.oled_FillRect,"ax",%progbits
 961              		.align	2
 962              		.global	oled_FillRect
 963              		.thumb
 964              		.thumb_func
 965              		.type	oled_FillRect, %function
 966              	oled_FillRect:
 967              	.LFB79:
 320:oled.c        **** 
 321:oled.c        **** //========================================
 322:oled.c        **** // oled_FillRect()
 323:oled.c        **** // this functions fills a rectangle defined by
 324:oled.c        **** // its upper left corner (x0, y0) and lower right
 325:oled.c        **** // corner (x1, y1)
 326:oled.c        **** //
 327:oled.c        **** // Parameters:
 328:oled.c        **** //     oled - pointer to a oled_t structure
 329:oled.c        **** //     x0 - upper left x-coordinate
 330:oled.c        **** //     y0 - upper left y-coordinate
 331:oled.c        **** //     x1 - lower right x-coordinate
 332:oled.c        **** //     y1 - lower right y-coordinate
 333:oled.c        **** //========================================
 334:oled.c        **** void oled_FillRect(oled_t * oled, int x0, int y0, int x1, int y1)
 335:oled.c        **** {
 968              		.loc 1 335 0
 969              		.cfi_startproc
 970              		@ args = 4, pretend = 0, frame = 16
 971              		@ frame_needed = 1, uses_anonymous_args = 0
 972 0000 80B5     		push	{r7, lr}
 973              		.cfi_def_cfa_offset 8
 974              		.cfi_offset 7, -8
ARM GAS  C:\Users\seanj\AppData\Local\Temp\ccw9gLN6.s 			page 24


 975              		.cfi_offset 14, -4
 976 0002 86B0     		sub	sp, sp, #24
 977              		.cfi_def_cfa_offset 32
 978 0004 02AF     		add	r7, sp, #8
 979              		.cfi_def_cfa 7, 24
 980 0006 F860     		str	r0, [r7, #12]
 981 0008 B960     		str	r1, [r7, #8]
 982 000a 7A60     		str	r2, [r7, #4]
 983 000c 3B60     		str	r3, [r7]
 336:oled.c        ****     WriteGRAM(oled, x0, y0, x1, y1, oled->color);       // fill rectangle
 984              		.loc 1 336 0
 985 000e FB68     		ldr	r3, [r7, #12]
 986 0010 5B7C     		ldrb	r3, [r3, #17]	@ zero_extendqisi2
 987 0012 0193     		str	r3, [sp, #4]
 988 0014 BB69     		ldr	r3, [r7, #24]
 989 0016 0093     		str	r3, [sp]
 990 0018 3B68     		ldr	r3, [r7]
 991 001a 7A68     		ldr	r2, [r7, #4]
 992 001c B968     		ldr	r1, [r7, #8]
 993 001e F868     		ldr	r0, [r7, #12]
 994 0020 FFF7FEFF 		bl	WriteGRAM
 337:oled.c        **** }
 995              		.loc 1 337 0
 996 0024 00BF     		nop
 997 0026 1037     		adds	r7, r7, #16
 998              		.cfi_def_cfa_offset 8
 999 0028 BD46     		mov	sp, r7
 1000              		.cfi_def_cfa_register 13
 1001              		@ sp needed
 1002 002a 80BD     		pop	{r7, pc}
 1003              		.cfi_endproc
 1004              	.LFE79:
 1005              		.size	oled_FillRect, .-oled_FillRect
 1006              		.section	.text.oled_FillRoundedRect,"ax",%progbits
 1007              		.align	2
 1008              		.global	oled_FillRoundedRect
 1009              		.thumb
 1010              		.thumb_func
 1011              		.type	oled_FillRoundedRect, %function
 1012              	oled_FillRoundedRect:
 1013              	.LFB80:
 338:oled.c        **** 
 339:oled.c        **** //========================================
 340:oled.c        **** // oled_FillRoundedRect()
 341:oled.c        **** // this functions fills a rectangle defined by
 342:oled.c        **** // its upper left corner (x0, y0) and lower right
 343:oled.c        **** // corner (x1, y1). The corners of the rectangle 
 344:oled.c        **** // are rounded with radius r
 345:oled.c        **** //
 346:oled.c        **** // Parameters:
 347:oled.c        **** //     oled - pointer to a oled_t structure
 348:oled.c        **** //     x0 - upper left x-position
 349:oled.c        **** //     y0 - upper left y-position
 350:oled.c        **** //     x1 - lower right x-position
 351:oled.c        **** //     y1 - lower right y-position
 352:oled.c        **** //     r - radius to be used for rounded corners
 353:oled.c        **** //         (must be less than or equal to 1/2 
ARM GAS  C:\Users\seanj\AppData\Local\Temp\ccw9gLN6.s 			page 25


 354:oled.c        **** //         the smallest side length)
 355:oled.c        **** //========================================
 356:oled.c        **** void oled_FillRoundedRect(oled_t * oled, int x0, int y0, int x1, int y1, int r)
 357:oled.c        **** {
 1014              		.loc 1 357 0
 1015              		.cfi_startproc
 1016              		@ args = 8, pretend = 0, frame = 16
 1017              		@ frame_needed = 1, uses_anonymous_args = 0
 1018 0000 80B5     		push	{r7, lr}
 1019              		.cfi_def_cfa_offset 8
 1020              		.cfi_offset 7, -8
 1021              		.cfi_offset 14, -4
 1022 0002 86B0     		sub	sp, sp, #24
 1023              		.cfi_def_cfa_offset 32
 1024 0004 02AF     		add	r7, sp, #8
 1025              		.cfi_def_cfa 7, 24
 1026 0006 F860     		str	r0, [r7, #12]
 1027 0008 B960     		str	r1, [r7, #8]
 1028 000a 7A60     		str	r2, [r7, #4]
 1029 000c 3B60     		str	r3, [r7]
 358:oled.c        ****     if ((x1 - x0 < 2*r) || (y1 - y0 < 2*r)) return;     // raidus must be less than or equal to 1/2
 1030              		.loc 1 358 0
 1031 000e 3A68     		ldr	r2, [r7]
 1032 0010 BB68     		ldr	r3, [r7, #8]
 1033 0012 D21A     		subs	r2, r2, r3
 1034 0014 FB69     		ldr	r3, [r7, #28]
 1035 0016 5B00     		lsls	r3, r3, #1
 1036 0018 9A42     		cmp	r2, r3
 1037 001a 6BDB     		blt	.L50
 1038              		.loc 1 358 0 is_stmt 0 discriminator 1
 1039 001c BA69     		ldr	r2, [r7, #24]
 1040 001e 7B68     		ldr	r3, [r7, #4]
 1041 0020 D21A     		subs	r2, r2, r3
 1042 0022 FB69     		ldr	r3, [r7, #28]
 1043 0024 5B00     		lsls	r3, r3, #1
 1044 0026 9A42     		cmp	r2, r3
 1045 0028 64DB     		blt	.L50
 359:oled.c        ****     oled_FillRect(oled, x0+r, y0, x1-r, y1);            // fill in rectangle
 1046              		.loc 1 359 0 is_stmt 1
 1047 002a BA68     		ldr	r2, [r7, #8]
 1048 002c FB69     		ldr	r3, [r7, #28]
 1049 002e D118     		adds	r1, r2, r3
 1050 0030 3A68     		ldr	r2, [r7]
 1051 0032 FB69     		ldr	r3, [r7, #28]
 1052 0034 D21A     		subs	r2, r2, r3
 1053 0036 BB69     		ldr	r3, [r7, #24]
 1054 0038 0093     		str	r3, [sp]
 1055 003a 1346     		mov	r3, r2
 1056 003c 7A68     		ldr	r2, [r7, #4]
 1057 003e F868     		ldr	r0, [r7, #12]
 1058 0040 FFF7FEFF 		bl	oled_FillRect
 360:oled.c        ****     oled_FillRect(oled, x0, y0+r, x0+r, y1-r);
 1059              		.loc 1 360 0
 1060 0044 7A68     		ldr	r2, [r7, #4]
 1061 0046 FB69     		ldr	r3, [r7, #28]
 1062 0048 D118     		adds	r1, r2, r3
 1063 004a BA68     		ldr	r2, [r7, #8]
ARM GAS  C:\Users\seanj\AppData\Local\Temp\ccw9gLN6.s 			page 26


 1064 004c FB69     		ldr	r3, [r7, #28]
 1065 004e D018     		adds	r0, r2, r3
 1066 0050 BA69     		ldr	r2, [r7, #24]
 1067 0052 FB69     		ldr	r3, [r7, #28]
 1068 0054 D31A     		subs	r3, r2, r3
 1069 0056 0093     		str	r3, [sp]
 1070 0058 0346     		mov	r3, r0
 1071 005a 0A46     		mov	r2, r1
 1072 005c B968     		ldr	r1, [r7, #8]
 1073 005e F868     		ldr	r0, [r7, #12]
 1074 0060 FFF7FEFF 		bl	oled_FillRect
 361:oled.c        ****     oled_FillRect(oled, x1-r, y0+r, x1, y1-r);
 1075              		.loc 1 361 0
 1076 0064 3A68     		ldr	r2, [r7]
 1077 0066 FB69     		ldr	r3, [r7, #28]
 1078 0068 D11A     		subs	r1, r2, r3
 1079 006a 7A68     		ldr	r2, [r7, #4]
 1080 006c FB69     		ldr	r3, [r7, #28]
 1081 006e D018     		adds	r0, r2, r3
 1082 0070 BA69     		ldr	r2, [r7, #24]
 1083 0072 FB69     		ldr	r3, [r7, #28]
 1084 0074 D31A     		subs	r3, r2, r3
 1085 0076 0093     		str	r3, [sp]
 1086 0078 3B68     		ldr	r3, [r7]
 1087 007a 0246     		mov	r2, r0
 1088 007c F868     		ldr	r0, [r7, #12]
 1089 007e FFF7FEFF 		bl	oled_FillRect
 362:oled.c        ****     oled_DrawPie(oled, x1-r, y0+r, r, 6, 8);            // fill in corners
 1090              		.loc 1 362 0
 1091 0082 3A68     		ldr	r2, [r7]
 1092 0084 FB69     		ldr	r3, [r7, #28]
 1093 0086 D11A     		subs	r1, r2, r3
 1094 0088 7A68     		ldr	r2, [r7, #4]
 1095 008a FB69     		ldr	r3, [r7, #28]
 1096 008c 1A44     		add	r2, r2, r3
 1097 008e 0823     		movs	r3, #8
 1098 0090 0193     		str	r3, [sp, #4]
 1099 0092 0623     		movs	r3, #6
 1100 0094 0093     		str	r3, [sp]
 1101 0096 FB69     		ldr	r3, [r7, #28]
 1102 0098 F868     		ldr	r0, [r7, #12]
 1103 009a FFF7FEFF 		bl	oled_DrawPie
 363:oled.c        ****     oled_DrawPie(oled, x0+r, y0+r, r, 4, 6);
 1104              		.loc 1 363 0
 1105 009e BA68     		ldr	r2, [r7, #8]
 1106 00a0 FB69     		ldr	r3, [r7, #28]
 1107 00a2 D118     		adds	r1, r2, r3
 1108 00a4 7A68     		ldr	r2, [r7, #4]
 1109 00a6 FB69     		ldr	r3, [r7, #28]
 1110 00a8 1A44     		add	r2, r2, r3
 1111 00aa 0623     		movs	r3, #6
 1112 00ac 0193     		str	r3, [sp, #4]
 1113 00ae 0423     		movs	r3, #4
 1114 00b0 0093     		str	r3, [sp]
 1115 00b2 FB69     		ldr	r3, [r7, #28]
 1116 00b4 F868     		ldr	r0, [r7, #12]
 1117 00b6 FFF7FEFF 		bl	oled_DrawPie
ARM GAS  C:\Users\seanj\AppData\Local\Temp\ccw9gLN6.s 			page 27


 364:oled.c        ****     oled_DrawPie(oled, x0+r, y1-r, r, 2, 4);
 1118              		.loc 1 364 0
 1119 00ba BA68     		ldr	r2, [r7, #8]
 1120 00bc FB69     		ldr	r3, [r7, #28]
 1121 00be D118     		adds	r1, r2, r3
 1122 00c0 BA69     		ldr	r2, [r7, #24]
 1123 00c2 FB69     		ldr	r3, [r7, #28]
 1124 00c4 D21A     		subs	r2, r2, r3
 1125 00c6 0423     		movs	r3, #4
 1126 00c8 0193     		str	r3, [sp, #4]
 1127 00ca 0223     		movs	r3, #2
 1128 00cc 0093     		str	r3, [sp]
 1129 00ce FB69     		ldr	r3, [r7, #28]
 1130 00d0 F868     		ldr	r0, [r7, #12]
 1131 00d2 FFF7FEFF 		bl	oled_DrawPie
 365:oled.c        ****     oled_DrawPie(oled, x1-r, y1-r, r, 0, 2);
 1132              		.loc 1 365 0
 1133 00d6 3A68     		ldr	r2, [r7]
 1134 00d8 FB69     		ldr	r3, [r7, #28]
 1135 00da D11A     		subs	r1, r2, r3
 1136 00dc BA69     		ldr	r2, [r7, #24]
 1137 00de FB69     		ldr	r3, [r7, #28]
 1138 00e0 D21A     		subs	r2, r2, r3
 1139 00e2 0223     		movs	r3, #2
 1140 00e4 0193     		str	r3, [sp, #4]
 1141 00e6 0023     		movs	r3, #0
 1142 00e8 0093     		str	r3, [sp]
 1143 00ea FB69     		ldr	r3, [r7, #28]
 1144 00ec F868     		ldr	r0, [r7, #12]
 1145 00ee FFF7FEFF 		bl	oled_DrawPie
 1146 00f2 00E0     		b	.L46
 1147              	.L50:
 358:oled.c        ****     oled_FillRect(oled, x0+r, y0, x1-r, y1);            // fill in rectangle
 1148              		.loc 1 358 0
 1149 00f4 00BF     		nop
 1150              	.L46:
 366:oled.c        **** }
 1151              		.loc 1 366 0
 1152 00f6 1037     		adds	r7, r7, #16
 1153              		.cfi_def_cfa_offset 8
 1154 00f8 BD46     		mov	sp, r7
 1155              		.cfi_def_cfa_register 13
 1156              		@ sp needed
 1157 00fa 80BD     		pop	{r7, pc}
 1158              		.cfi_endproc
 1159              	.LFE80:
 1160              		.size	oled_FillRoundedRect, .-oled_FillRoundedRect
 1161              		.section	.text.oled_DrawRect,"ax",%progbits
 1162              		.align	2
 1163              		.global	oled_DrawRect
 1164              		.thumb
 1165              		.thumb_func
 1166              		.type	oled_DrawRect, %function
 1167              	oled_DrawRect:
 1168              	.LFB81:
 367:oled.c        **** 
 368:oled.c        **** //========================================
ARM GAS  C:\Users\seanj\AppData\Local\Temp\ccw9gLN6.s 			page 28


 369:oled.c        **** // oled_DrawRect()
 370:oled.c        **** // this functions draws a rectangle defined by
 371:oled.c        **** // its upper left corner (x0, y0) and lower right
 372:oled.c        **** // corner (x1, y1)
 373:oled.c        **** // 
 374:oled.c        **** // Parameters:
 375:oled.c        **** //     oled - pointer to a oled_t structure
 376:oled.c        **** //     x0 - upper left x-position
 377:oled.c        **** //     y0 - upper left y-position
 378:oled.c        **** //     x1 - lower right x-position
 379:oled.c        **** //     y1 - lower right y-position
 380:oled.c        **** //========================================
 381:oled.c        **** void oled_DrawRect(oled_t * oled, int x0, int y0, int x1, int y1)
 382:oled.c        **** {
 1169              		.loc 1 382 0
 1170              		.cfi_startproc
 1171              		@ args = 4, pretend = 0, frame = 16
 1172              		@ frame_needed = 1, uses_anonymous_args = 0
 1173 0000 80B5     		push	{r7, lr}
 1174              		.cfi_def_cfa_offset 8
 1175              		.cfi_offset 7, -8
 1176              		.cfi_offset 14, -4
 1177 0002 84B0     		sub	sp, sp, #16
 1178              		.cfi_def_cfa_offset 24
 1179 0004 00AF     		add	r7, sp, #0
 1180              		.cfi_def_cfa_register 7
 1181 0006 F860     		str	r0, [r7, #12]
 1182 0008 B960     		str	r1, [r7, #8]
 1183 000a 7A60     		str	r2, [r7, #4]
 1184 000c 3B60     		str	r3, [r7]
 383:oled.c        ****     if ((x1 < x0) || (y1 < y0)) return;     // check for bad parameters
 1185              		.loc 1 383 0
 1186 000e 3A68     		ldr	r2, [r7]
 1187 0010 BB68     		ldr	r3, [r7, #8]
 1188 0012 9A42     		cmp	r2, r3
 1189 0014 1CDB     		blt	.L55
 1190              		.loc 1 383 0 is_stmt 0 discriminator 1
 1191 0016 BA69     		ldr	r2, [r7, #24]
 1192 0018 7B68     		ldr	r3, [r7, #4]
 1193 001a 9A42     		cmp	r2, r3
 1194 001c 18DB     		blt	.L55
 384:oled.c        ****     DrawHLine(oled, y0, x0, x1);            // draw boundries of rectange
 1195              		.loc 1 384 0 is_stmt 1
 1196 001e 3B68     		ldr	r3, [r7]
 1197 0020 BA68     		ldr	r2, [r7, #8]
 1198 0022 7968     		ldr	r1, [r7, #4]
 1199 0024 F868     		ldr	r0, [r7, #12]
 1200 0026 FFF7FEFF 		bl	DrawHLine
 385:oled.c        ****     DrawHLine(oled, y1, x0, x1);
 1201              		.loc 1 385 0
 1202 002a 3B68     		ldr	r3, [r7]
 1203 002c BA68     		ldr	r2, [r7, #8]
 1204 002e B969     		ldr	r1, [r7, #24]
 1205 0030 F868     		ldr	r0, [r7, #12]
 1206 0032 FFF7FEFF 		bl	DrawHLine
 386:oled.c        ****     DrawVLine(oled, x0, y0, y1);
 1207              		.loc 1 386 0
ARM GAS  C:\Users\seanj\AppData\Local\Temp\ccw9gLN6.s 			page 29


 1208 0036 BB69     		ldr	r3, [r7, #24]
 1209 0038 7A68     		ldr	r2, [r7, #4]
 1210 003a B968     		ldr	r1, [r7, #8]
 1211 003c F868     		ldr	r0, [r7, #12]
 1212 003e FFF7FEFF 		bl	DrawVLine
 387:oled.c        ****     DrawVLine(oled, x1, y0, y1);
 1213              		.loc 1 387 0
 1214 0042 BB69     		ldr	r3, [r7, #24]
 1215 0044 7A68     		ldr	r2, [r7, #4]
 1216 0046 3968     		ldr	r1, [r7]
 1217 0048 F868     		ldr	r0, [r7, #12]
 1218 004a FFF7FEFF 		bl	DrawVLine
 1219 004e 00E0     		b	.L51
 1220              	.L55:
 383:oled.c        ****     DrawHLine(oled, y0, x0, x1);            // draw boundries of rectange
 1221              		.loc 1 383 0
 1222 0050 00BF     		nop
 1223              	.L51:
 388:oled.c        **** }
 1224              		.loc 1 388 0
 1225 0052 1037     		adds	r7, r7, #16
 1226              		.cfi_def_cfa_offset 8
 1227 0054 BD46     		mov	sp, r7
 1228              		.cfi_def_cfa_register 13
 1229              		@ sp needed
 1230 0056 80BD     		pop	{r7, pc}
 1231              		.cfi_endproc
 1232              	.LFE81:
 1233              		.size	oled_DrawRect, .-oled_DrawRect
 1234              		.section	.text.oled_DrawRoundedRect,"ax",%progbits
 1235              		.align	2
 1236              		.global	oled_DrawRoundedRect
 1237              		.thumb
 1238              		.thumb_func
 1239              		.type	oled_DrawRoundedRect, %function
 1240              	oled_DrawRoundedRect:
 1241              	.LFB82:
 389:oled.c        **** 
 390:oled.c        **** //========================================
 391:oled.c        **** // oled_DrawRoundedRect()
 392:oled.c        **** // this functions draws a rectangle defined by
 393:oled.c        **** // its upper left corner (x0, y0) and lower right
 394:oled.c        **** // corner (x1, y1). The corners of the rectangle 
 395:oled.c        **** // are rounded with radius r
 396:oled.c        **** // 
 397:oled.c        **** // Parameters:
 398:oled.c        **** //     oled - pointer to a oled_t structure
 399:oled.c        **** //     x0 - upper left x-position
 400:oled.c        **** //     y0 - upper left y-position
 401:oled.c        **** //     x1 - lower right x-position
 402:oled.c        **** //     y1 - lower right y-position
 403:oled.c        **** //     r - radius to be used for rounded corners
 404:oled.c        **** //         (must be less than or equal to 1/2 
 405:oled.c        **** //         the smallest side length)
 406:oled.c        **** //========================================
 407:oled.c        **** void oled_DrawRoundedRect(oled_t * oled, int x0, int y0, int x1, int y1, int r)
 408:oled.c        **** {
ARM GAS  C:\Users\seanj\AppData\Local\Temp\ccw9gLN6.s 			page 30


 1242              		.loc 1 408 0
 1243              		.cfi_startproc
 1244              		@ args = 8, pretend = 0, frame = 16
 1245              		@ frame_needed = 1, uses_anonymous_args = 0
 1246 0000 80B5     		push	{r7, lr}
 1247              		.cfi_def_cfa_offset 8
 1248              		.cfi_offset 7, -8
 1249              		.cfi_offset 14, -4
 1250 0002 86B0     		sub	sp, sp, #24
 1251              		.cfi_def_cfa_offset 32
 1252 0004 02AF     		add	r7, sp, #8
 1253              		.cfi_def_cfa 7, 24
 1254 0006 F860     		str	r0, [r7, #12]
 1255 0008 B960     		str	r1, [r7, #8]
 1256 000a 7A60     		str	r2, [r7, #4]
 1257 000c 3B60     		str	r3, [r7]
 409:oled.c        ****     if ((x1 - x0 < 2*r) || (y1 - y0 < 2*r)) return;     // raidus must be less than or equal to 1/2
 1258              		.loc 1 409 0
 1259 000e 3A68     		ldr	r2, [r7]
 1260 0010 BB68     		ldr	r3, [r7, #8]
 1261 0012 D21A     		subs	r2, r2, r3
 1262 0014 FB69     		ldr	r3, [r7, #28]
 1263 0016 5B00     		lsls	r3, r3, #1
 1264 0018 9A42     		cmp	r2, r3
 1265 001a 6BDB     		blt	.L60
 1266              		.loc 1 409 0 is_stmt 0 discriminator 1
 1267 001c BA69     		ldr	r2, [r7, #24]
 1268 001e 7B68     		ldr	r3, [r7, #4]
 1269 0020 D21A     		subs	r2, r2, r3
 1270 0022 FB69     		ldr	r3, [r7, #28]
 1271 0024 5B00     		lsls	r3, r3, #1
 1272 0026 9A42     		cmp	r2, r3
 1273 0028 64DB     		blt	.L60
 410:oled.c        ****     DrawHLine(oled, y0, x0+r, x1-r);                    // draw boundries of rectange
 1274              		.loc 1 410 0 is_stmt 1
 1275 002a BA68     		ldr	r2, [r7, #8]
 1276 002c FB69     		ldr	r3, [r7, #28]
 1277 002e D118     		adds	r1, r2, r3
 1278 0030 3A68     		ldr	r2, [r7]
 1279 0032 FB69     		ldr	r3, [r7, #28]
 1280 0034 D31A     		subs	r3, r2, r3
 1281 0036 0A46     		mov	r2, r1
 1282 0038 7968     		ldr	r1, [r7, #4]
 1283 003a F868     		ldr	r0, [r7, #12]
 1284 003c FFF7FEFF 		bl	DrawHLine
 411:oled.c        ****     DrawHLine(oled, y1, x0+r, x1-r);
 1285              		.loc 1 411 0
 1286 0040 BA68     		ldr	r2, [r7, #8]
 1287 0042 FB69     		ldr	r3, [r7, #28]
 1288 0044 D118     		adds	r1, r2, r3
 1289 0046 3A68     		ldr	r2, [r7]
 1290 0048 FB69     		ldr	r3, [r7, #28]
 1291 004a D31A     		subs	r3, r2, r3
 1292 004c 0A46     		mov	r2, r1
 1293 004e B969     		ldr	r1, [r7, #24]
 1294 0050 F868     		ldr	r0, [r7, #12]
 1295 0052 FFF7FEFF 		bl	DrawHLine
ARM GAS  C:\Users\seanj\AppData\Local\Temp\ccw9gLN6.s 			page 31


 412:oled.c        ****     DrawVLine(oled, x0, y0+r, y1-r);
 1296              		.loc 1 412 0
 1297 0056 7A68     		ldr	r2, [r7, #4]
 1298 0058 FB69     		ldr	r3, [r7, #28]
 1299 005a D118     		adds	r1, r2, r3
 1300 005c BA69     		ldr	r2, [r7, #24]
 1301 005e FB69     		ldr	r3, [r7, #28]
 1302 0060 D31A     		subs	r3, r2, r3
 1303 0062 0A46     		mov	r2, r1
 1304 0064 B968     		ldr	r1, [r7, #8]
 1305 0066 F868     		ldr	r0, [r7, #12]
 1306 0068 FFF7FEFF 		bl	DrawVLine
 413:oled.c        ****     DrawVLine(oled, x1, y0+r, y1-r);
 1307              		.loc 1 413 0
 1308 006c 7A68     		ldr	r2, [r7, #4]
 1309 006e FB69     		ldr	r3, [r7, #28]
 1310 0070 D118     		adds	r1, r2, r3
 1311 0072 BA69     		ldr	r2, [r7, #24]
 1312 0074 FB69     		ldr	r3, [r7, #28]
 1313 0076 D31A     		subs	r3, r2, r3
 1314 0078 0A46     		mov	r2, r1
 1315 007a 3968     		ldr	r1, [r7]
 1316 007c F868     		ldr	r0, [r7, #12]
 1317 007e FFF7FEFF 		bl	DrawVLine
 414:oled.c        ****     oled_DrawArc(oled, x1-r, y0+r, r, 6, 8);            // draw rounded edges
 1318              		.loc 1 414 0
 1319 0082 3A68     		ldr	r2, [r7]
 1320 0084 FB69     		ldr	r3, [r7, #28]
 1321 0086 D11A     		subs	r1, r2, r3
 1322 0088 7A68     		ldr	r2, [r7, #4]
 1323 008a FB69     		ldr	r3, [r7, #28]
 1324 008c 1A44     		add	r2, r2, r3
 1325 008e 0823     		movs	r3, #8
 1326 0090 0193     		str	r3, [sp, #4]
 1327 0092 0623     		movs	r3, #6
 1328 0094 0093     		str	r3, [sp]
 1329 0096 FB69     		ldr	r3, [r7, #28]
 1330 0098 F868     		ldr	r0, [r7, #12]
 1331 009a FFF7FEFF 		bl	oled_DrawArc
 415:oled.c        ****     oled_DrawArc(oled, x0+r, y0+r, r, 4, 6);
 1332              		.loc 1 415 0
 1333 009e BA68     		ldr	r2, [r7, #8]
 1334 00a0 FB69     		ldr	r3, [r7, #28]
 1335 00a2 D118     		adds	r1, r2, r3
 1336 00a4 7A68     		ldr	r2, [r7, #4]
 1337 00a6 FB69     		ldr	r3, [r7, #28]
 1338 00a8 1A44     		add	r2, r2, r3
 1339 00aa 0623     		movs	r3, #6
 1340 00ac 0193     		str	r3, [sp, #4]
 1341 00ae 0423     		movs	r3, #4
 1342 00b0 0093     		str	r3, [sp]
 1343 00b2 FB69     		ldr	r3, [r7, #28]
 1344 00b4 F868     		ldr	r0, [r7, #12]
 1345 00b6 FFF7FEFF 		bl	oled_DrawArc
 416:oled.c        ****     oled_DrawArc(oled, x0+r, y1-r, r, 2, 4);
 1346              		.loc 1 416 0
 1347 00ba BA68     		ldr	r2, [r7, #8]
ARM GAS  C:\Users\seanj\AppData\Local\Temp\ccw9gLN6.s 			page 32


 1348 00bc FB69     		ldr	r3, [r7, #28]
 1349 00be D118     		adds	r1, r2, r3
 1350 00c0 BA69     		ldr	r2, [r7, #24]
 1351 00c2 FB69     		ldr	r3, [r7, #28]
 1352 00c4 D21A     		subs	r2, r2, r3
 1353 00c6 0423     		movs	r3, #4
 1354 00c8 0193     		str	r3, [sp, #4]
 1355 00ca 0223     		movs	r3, #2
 1356 00cc 0093     		str	r3, [sp]
 1357 00ce FB69     		ldr	r3, [r7, #28]
 1358 00d0 F868     		ldr	r0, [r7, #12]
 1359 00d2 FFF7FEFF 		bl	oled_DrawArc
 417:oled.c        ****     oled_DrawArc(oled, x1-r, y1-r, r, 0, 2);
 1360              		.loc 1 417 0
 1361 00d6 3A68     		ldr	r2, [r7]
 1362 00d8 FB69     		ldr	r3, [r7, #28]
 1363 00da D11A     		subs	r1, r2, r3
 1364 00dc BA69     		ldr	r2, [r7, #24]
 1365 00de FB69     		ldr	r3, [r7, #28]
 1366 00e0 D21A     		subs	r2, r2, r3
 1367 00e2 0223     		movs	r3, #2
 1368 00e4 0193     		str	r3, [sp, #4]
 1369 00e6 0023     		movs	r3, #0
 1370 00e8 0093     		str	r3, [sp]
 1371 00ea FB69     		ldr	r3, [r7, #28]
 1372 00ec F868     		ldr	r0, [r7, #12]
 1373 00ee FFF7FEFF 		bl	oled_DrawArc
 1374 00f2 00E0     		b	.L56
 1375              	.L60:
 409:oled.c        ****     DrawHLine(oled, y0, x0+r, x1-r);                    // draw boundries of rectange
 1376              		.loc 1 409 0
 1377 00f4 00BF     		nop
 1378              	.L56:
 418:oled.c        **** }
 1379              		.loc 1 418 0
 1380 00f6 1037     		adds	r7, r7, #16
 1381              		.cfi_def_cfa_offset 8
 1382 00f8 BD46     		mov	sp, r7
 1383              		.cfi_def_cfa_register 13
 1384              		@ sp needed
 1385 00fa 80BD     		pop	{r7, pc}
 1386              		.cfi_endproc
 1387              	.LFE82:
 1388              		.size	oled_DrawRoundedRect, .-oled_DrawRoundedRect
 1389              		.section	.text.oled_DrawCircle,"ax",%progbits
 1390              		.align	2
 1391              		.global	oled_DrawCircle
 1392              		.thumb
 1393              		.thumb_func
 1394              		.type	oled_DrawCircle, %function
 1395              	oled_DrawCircle:
 1396              	.LFB83:
 419:oled.c        **** 
 420:oled.c        **** //========================================
 421:oled.c        **** // oled_DrawCircle()
 422:oled.c        **** // this functions draws a circle or radius r
 423:oled.c        **** // centered at (xc, yc)
ARM GAS  C:\Users\seanj\AppData\Local\Temp\ccw9gLN6.s 			page 33


 424:oled.c        **** //
 425:oled.c        **** // Parameters:
 426:oled.c        **** //     oled - pointer to a oled_t structure
 427:oled.c        **** //     xc - x-coordinate of the center of the circle
 428:oled.c        **** //     yc - y-coordinate of the center of the circle
 429:oled.c        **** //     r - radius of circle
 430:oled.c        **** //========================================
 431:oled.c        **** void oled_DrawCircle(oled_t * oled, int xc, int yc, int r)
 432:oled.c        **** {
 1397              		.loc 1 432 0
 1398              		.cfi_startproc
 1399              		@ args = 0, pretend = 0, frame = 16
 1400              		@ frame_needed = 1, uses_anonymous_args = 0
 1401 0000 80B5     		push	{r7, lr}
 1402              		.cfi_def_cfa_offset 8
 1403              		.cfi_offset 7, -8
 1404              		.cfi_offset 14, -4
 1405 0002 86B0     		sub	sp, sp, #24
 1406              		.cfi_def_cfa_offset 32
 1407 0004 02AF     		add	r7, sp, #8
 1408              		.cfi_def_cfa 7, 24
 1409 0006 F860     		str	r0, [r7, #12]
 1410 0008 B960     		str	r1, [r7, #8]
 1411 000a 7A60     		str	r2, [r7, #4]
 1412 000c 3B60     		str	r3, [r7]
 433:oled.c        ****     BresenhamCircleAlgorithm(oled, xc, yc, r-oled->penSize, r+oled->penSize, 0xFF);     // draw cir
 1413              		.loc 1 433 0
 1414 000e FB68     		ldr	r3, [r7, #12]
 1415 0010 9B7C     		ldrb	r3, [r3, #18]	@ zero_extendqisi2
 1416 0012 1A46     		mov	r2, r3
 1417 0014 3B68     		ldr	r3, [r7]
 1418 0016 991A     		subs	r1, r3, r2
 1419 0018 FB68     		ldr	r3, [r7, #12]
 1420 001a 9B7C     		ldrb	r3, [r3, #18]	@ zero_extendqisi2
 1421 001c 1A46     		mov	r2, r3
 1422 001e 3B68     		ldr	r3, [r7]
 1423 0020 1344     		add	r3, r3, r2
 1424 0022 FF22     		movs	r2, #255
 1425 0024 0192     		str	r2, [sp, #4]
 1426 0026 0093     		str	r3, [sp]
 1427 0028 0B46     		mov	r3, r1
 1428 002a 7A68     		ldr	r2, [r7, #4]
 1429 002c B968     		ldr	r1, [r7, #8]
 1430 002e F868     		ldr	r0, [r7, #12]
 1431 0030 FFF7FEFF 		bl	BresenhamCircleAlgorithm
 434:oled.c        **** }
 1432              		.loc 1 434 0
 1433 0034 00BF     		nop
 1434 0036 1037     		adds	r7, r7, #16
 1435              		.cfi_def_cfa_offset 8
 1436 0038 BD46     		mov	sp, r7
 1437              		.cfi_def_cfa_register 13
 1438              		@ sp needed
 1439 003a 80BD     		pop	{r7, pc}
 1440              		.cfi_endproc
 1441              	.LFE83:
 1442              		.size	oled_DrawCircle, .-oled_DrawCircle
ARM GAS  C:\Users\seanj\AppData\Local\Temp\ccw9gLN6.s 			page 34


 1443              		.section	.text.oled_DrawArc,"ax",%progbits
 1444              		.align	2
 1445              		.global	oled_DrawArc
 1446              		.thumb
 1447              		.thumb_func
 1448              		.type	oled_DrawArc, %function
 1449              	oled_DrawArc:
 1450              	.LFB84:
 435:oled.c        **** 
 436:oled.c        **** //========================================
 437:oled.c        **** // oled_DrawArc()
 438:oled.c        **** // this function draws an arc of radius r
 439:oled.c        **** // centered at (xc, yc). a0 and a1 specify
 440:oled.c        **** // the start and end angles for the arc
 441:oled.c        **** // 
 442:oled.c        **** // Parameters:
 443:oled.c        **** //     oled - pointer to a oled_t structure
 444:oled.c        **** //     xc - x-coordinate of the center of the arc (center of circle)
 445:oled.c        **** //     yc - y-coordinate of the center of the arc (center of circle)
 446:oled.c        **** //     r - radius of arc
 447:oled.c        **** //     a0 - start angle (angle = a0*pi/4)
 448:oled.c        **** //     a1 - end angle (angle = a1*pi/4)
 449:oled.c        **** //========================================
 450:oled.c        **** void oled_DrawArc(oled_t * oled, int xc, int yc, int r, int a0, int a1)
 451:oled.c        **** {   
 1451              		.loc 1 451 0
 1452              		.cfi_startproc
 1453              		@ args = 8, pretend = 0, frame = 24
 1454              		@ frame_needed = 1, uses_anonymous_args = 0
 1455 0000 80B5     		push	{r7, lr}
 1456              		.cfi_def_cfa_offset 8
 1457              		.cfi_offset 7, -8
 1458              		.cfi_offset 14, -4
 1459 0002 88B0     		sub	sp, sp, #32
 1460              		.cfi_def_cfa_offset 40
 1461 0004 02AF     		add	r7, sp, #8
 1462              		.cfi_def_cfa 7, 32
 1463 0006 F860     		str	r0, [r7, #12]
 1464 0008 B960     		str	r1, [r7, #8]
 1465 000a 7A60     		str	r2, [r7, #4]
 1466 000c 3B60     		str	r3, [r7]
 452:oled.c        ****     if (a1 < a0) Swap(&a0, &a1);                        // make sure a0 is less than a1
 1467              		.loc 1 452 0
 1468 000e 7A6A     		ldr	r2, [r7, #36]
 1469 0010 3B6A     		ldr	r3, [r7, #32]
 1470 0012 9A42     		cmp	r2, r3
 1471 0014 06DA     		bge	.L63
 1472              		.loc 1 452 0 is_stmt 0 discriminator 1
 1473 0016 07F12403 		add	r3, r7, #36
 1474 001a 1946     		mov	r1, r3
 1475 001c 07F12000 		add	r0, r7, #32
 1476 0020 FFF7FEFF 		bl	Swap
 1477              	.L63:
 453:oled.c        ****     if ((a0 < 0) || (a1 > 8)) return;                   // make sure a0 and a1 are between 0 and 8 
 1478              		.loc 1 453 0 is_stmt 1
 1479 0024 3B6A     		ldr	r3, [r7, #32]
 1480 0026 002B     		cmp	r3, #0
ARM GAS  C:\Users\seanj\AppData\Local\Temp\ccw9gLN6.s 			page 35


 1481 0028 25DB     		blt	.L67
 1482              		.loc 1 453 0 is_stmt 0 discriminator 1
 1483 002a 7B6A     		ldr	r3, [r7, #36]
 1484 002c 082B     		cmp	r3, #8
 1485 002e 22DC     		bgt	.L67
 454:oled.c        **** 
 455:oled.c        ****     uint8 octants = (0xFF >> (8-a1)) & (0xFF << a0);    
 1486              		.loc 1 455 0 is_stmt 1
 1487 0030 7B6A     		ldr	r3, [r7, #36]
 1488 0032 C3F10803 		rsb	r3, r3, #8
 1489 0036 FF22     		movs	r2, #255
 1490 0038 42FA03F3 		asr	r3, r2, r3
 1491 003c 5AB2     		sxtb	r2, r3
 1492 003e 3B6A     		ldr	r3, [r7, #32]
 1493 0040 FF21     		movs	r1, #255
 1494 0042 01FA03F3 		lsl	r3, r1, r3
 1495 0046 5BB2     		sxtb	r3, r3
 1496 0048 1340     		ands	r3, r3, r2
 1497 004a 5BB2     		sxtb	r3, r3
 1498 004c FB75     		strb	r3, [r7, #23]
 456:oled.c        ****     BresenhamCircleAlgorithm(oled, xc, yc, r-oled->penSize, r+oled->penSize, octants);  // draw arc
 1499              		.loc 1 456 0
 1500 004e FB68     		ldr	r3, [r7, #12]
 1501 0050 9B7C     		ldrb	r3, [r3, #18]	@ zero_extendqisi2
 1502 0052 1A46     		mov	r2, r3
 1503 0054 3B68     		ldr	r3, [r7]
 1504 0056 991A     		subs	r1, r3, r2
 1505 0058 FB68     		ldr	r3, [r7, #12]
 1506 005a 9B7C     		ldrb	r3, [r3, #18]	@ zero_extendqisi2
 1507 005c 1A46     		mov	r2, r3
 1508 005e 3B68     		ldr	r3, [r7]
 1509 0060 1344     		add	r3, r3, r2
 1510 0062 FA7D     		ldrb	r2, [r7, #23]	@ zero_extendqisi2
 1511 0064 0192     		str	r2, [sp, #4]
 1512 0066 0093     		str	r3, [sp]
 1513 0068 0B46     		mov	r3, r1
 1514 006a 7A68     		ldr	r2, [r7, #4]
 1515 006c B968     		ldr	r1, [r7, #8]
 1516 006e F868     		ldr	r0, [r7, #12]
 1517 0070 FFF7FEFF 		bl	BresenhamCircleAlgorithm
 1518 0074 00E0     		b	.L62
 1519              	.L67:
 453:oled.c        ****     if ((a0 < 0) || (a1 > 8)) return;                   // make sure a0 and a1 are between 0 and 8 
 1520              		.loc 1 453 0
 1521 0076 00BF     		nop
 1522              	.L62:
 457:oled.c        **** }
 1523              		.loc 1 457 0
 1524 0078 1837     		adds	r7, r7, #24
 1525              		.cfi_def_cfa_offset 8
 1526 007a BD46     		mov	sp, r7
 1527              		.cfi_def_cfa_register 13
 1528              		@ sp needed
 1529 007c 80BD     		pop	{r7, pc}
 1530              		.cfi_endproc
 1531              	.LFE84:
 1532              		.size	oled_DrawArc, .-oled_DrawArc
ARM GAS  C:\Users\seanj\AppData\Local\Temp\ccw9gLN6.s 			page 36


 1533 007e 00BF     		.section	.text.oled_FillCircle,"ax",%progbits
 1534              		.align	2
 1535              		.global	oled_FillCircle
 1536              		.thumb
 1537              		.thumb_func
 1538              		.type	oled_FillCircle, %function
 1539              	oled_FillCircle:
 1540              	.LFB85:
 458:oled.c        **** 
 459:oled.c        **** //========================================
 460:oled.c        **** // oled_FillCircle()
 461:oled.c        **** // this function fills in a circle with radius r 
 462:oled.c        **** // centered at (xc, yc)
 463:oled.c        **** //
 464:oled.c        **** // Parameters:
 465:oled.c        **** //     oled - pointer to a oled_t structure
 466:oled.c        **** //     xc - x-coordinate of the center of the circle
 467:oled.c        **** //     yc - y-coordinate of the center of the circle
 468:oled.c        **** //     r - radius of circle
 469:oled.c        **** //========================================
 470:oled.c        **** void oled_FillCircle(oled_t * oled, int xc, int yc, int r)
 471:oled.c        **** {
 1541              		.loc 1 471 0
 1542              		.cfi_startproc
 1543              		@ args = 0, pretend = 0, frame = 16
 1544              		@ frame_needed = 1, uses_anonymous_args = 0
 1545 0000 80B5     		push	{r7, lr}
 1546              		.cfi_def_cfa_offset 8
 1547              		.cfi_offset 7, -8
 1548              		.cfi_offset 14, -4
 1549 0002 86B0     		sub	sp, sp, #24
 1550              		.cfi_def_cfa_offset 32
 1551 0004 02AF     		add	r7, sp, #8
 1552              		.cfi_def_cfa 7, 24
 1553 0006 F860     		str	r0, [r7, #12]
 1554 0008 B960     		str	r1, [r7, #8]
 1555 000a 7A60     		str	r2, [r7, #4]
 1556 000c 3B60     		str	r3, [r7]
 472:oled.c        ****     BresenhamCircleAlgorithm(oled, xc, yc, 0, r, 0xFF);     // fill circle using Bresenham's Circle
 1557              		.loc 1 472 0
 1558 000e FF23     		movs	r3, #255
 1559 0010 0193     		str	r3, [sp, #4]
 1560 0012 3B68     		ldr	r3, [r7]
 1561 0014 0093     		str	r3, [sp]
 1562 0016 0023     		movs	r3, #0
 1563 0018 7A68     		ldr	r2, [r7, #4]
 1564 001a B968     		ldr	r1, [r7, #8]
 1565 001c F868     		ldr	r0, [r7, #12]
 1566 001e FFF7FEFF 		bl	BresenhamCircleAlgorithm
 473:oled.c        **** }
 1567              		.loc 1 473 0
 1568 0022 00BF     		nop
 1569 0024 1037     		adds	r7, r7, #16
 1570              		.cfi_def_cfa_offset 8
 1571 0026 BD46     		mov	sp, r7
 1572              		.cfi_def_cfa_register 13
 1573              		@ sp needed
ARM GAS  C:\Users\seanj\AppData\Local\Temp\ccw9gLN6.s 			page 37


 1574 0028 80BD     		pop	{r7, pc}
 1575              		.cfi_endproc
 1576              	.LFE85:
 1577              		.size	oled_FillCircle, .-oled_FillCircle
 1578 002a 00BF     		.section	.text.oled_DrawPoint,"ax",%progbits
 1579              		.align	2
 1580              		.global	oled_DrawPoint
 1581              		.thumb
 1582              		.thumb_func
 1583              		.type	oled_DrawPoint, %function
 1584              	oled_DrawPoint:
 1585              	.LFB86:
 474:oled.c        **** 
 475:oled.c        **** //========================================
 476:oled.c        **** // oled_DrawPoint()
 477:oled.c        **** // this function fills in a circle centered 
 478:oled.c        **** // at (xc, yc).  The radius of the circle
 479:oled.c        **** // is the current pen size
 480:oled.c        **** // 
 481:oled.c        **** //
 482:oled.c        **** // Parameters:
 483:oled.c        **** //     oled - pointer to a oled_t structure
 484:oled.c        **** //     xc - x-coordinate of point
 485:oled.c        **** //     yc - y-coordinate of point
 486:oled.c        **** //========================================
 487:oled.c        **** void oled_DrawPoint(oled_t * oled, int xc, int yc)
 488:oled.c        **** {
 1586              		.loc 1 488 0
 1587              		.cfi_startproc
 1588              		@ args = 0, pretend = 0, frame = 16
 1589              		@ frame_needed = 1, uses_anonymous_args = 0
 1590 0000 80B5     		push	{r7, lr}
 1591              		.cfi_def_cfa_offset 8
 1592              		.cfi_offset 7, -8
 1593              		.cfi_offset 14, -4
 1594 0002 86B0     		sub	sp, sp, #24
 1595              		.cfi_def_cfa_offset 32
 1596 0004 02AF     		add	r7, sp, #8
 1597              		.cfi_def_cfa 7, 24
 1598 0006 F860     		str	r0, [r7, #12]
 1599 0008 B960     		str	r1, [r7, #8]
 1600 000a 7A60     		str	r2, [r7, #4]
 489:oled.c        ****     BresenhamCircleAlgorithm(oled, xc, yc, 0, oled->penSize, 0xFF);     // draw point using Bresenh
 1601              		.loc 1 489 0
 1602 000c FB68     		ldr	r3, [r7, #12]
 1603 000e 9B7C     		ldrb	r3, [r3, #18]	@ zero_extendqisi2
 1604 0010 1A46     		mov	r2, r3
 1605 0012 FF23     		movs	r3, #255
 1606 0014 0193     		str	r3, [sp, #4]
 1607 0016 0092     		str	r2, [sp]
 1608 0018 0023     		movs	r3, #0
 1609 001a 7A68     		ldr	r2, [r7, #4]
 1610 001c B968     		ldr	r1, [r7, #8]
 1611 001e F868     		ldr	r0, [r7, #12]
 1612 0020 FFF7FEFF 		bl	BresenhamCircleAlgorithm
 490:oled.c        **** }
 1613              		.loc 1 490 0
ARM GAS  C:\Users\seanj\AppData\Local\Temp\ccw9gLN6.s 			page 38


 1614 0024 00BF     		nop
 1615 0026 1037     		adds	r7, r7, #16
 1616              		.cfi_def_cfa_offset 8
 1617 0028 BD46     		mov	sp, r7
 1618              		.cfi_def_cfa_register 13
 1619              		@ sp needed
 1620 002a 80BD     		pop	{r7, pc}
 1621              		.cfi_endproc
 1622              	.LFE86:
 1623              		.size	oled_DrawPoint, .-oled_DrawPoint
 1624              		.section	.text.oled_DrawPie,"ax",%progbits
 1625              		.align	2
 1626              		.global	oled_DrawPie
 1627              		.thumb
 1628              		.thumb_func
 1629              		.type	oled_DrawPie, %function
 1630              	oled_DrawPie:
 1631              	.LFB87:
 491:oled.c        **** 
 492:oled.c        **** //========================================
 493:oled.c        **** // oled_DrawPie()
 494:oled.c        **** // this function draws an circular sector 
 495:oled.c        **** // of radius r  centered at (xc, yc). a0 and a1
 496:oled.c        **** // specify the start and end angles for the sector
 497:oled.c        **** // 
 498:oled.c        **** // Parameters:
 499:oled.c        **** //     oled - pointer to a oled_t structure
 500:oled.c        **** //     xc - x-coordinate of the center of the arc (center of circle)
 501:oled.c        **** //     yc - y-coordinate of the center of the arc (center of circle)
 502:oled.c        **** //     r - radius of circular sector
 503:oled.c        **** //     a0 - start angle (angle = a0*pi/4)
 504:oled.c        **** //     a1 - end angle (angle = a1*pi/4)
 505:oled.c        **** //========================================
 506:oled.c        **** void oled_DrawPie(oled_t * oled, int xc, int yc, int r, int a0, int a1)
 507:oled.c        **** {
 1632              		.loc 1 507 0
 1633              		.cfi_startproc
 1634              		@ args = 8, pretend = 0, frame = 24
 1635              		@ frame_needed = 1, uses_anonymous_args = 0
 1636 0000 80B5     		push	{r7, lr}
 1637              		.cfi_def_cfa_offset 8
 1638              		.cfi_offset 7, -8
 1639              		.cfi_offset 14, -4
 1640 0002 88B0     		sub	sp, sp, #32
 1641              		.cfi_def_cfa_offset 40
 1642 0004 02AF     		add	r7, sp, #8
 1643              		.cfi_def_cfa 7, 32
 1644 0006 F860     		str	r0, [r7, #12]
 1645 0008 B960     		str	r1, [r7, #8]
 1646 000a 7A60     		str	r2, [r7, #4]
 1647 000c 3B60     		str	r3, [r7]
 508:oled.c        ****     if (a1 < a0) Swap(&a0, &a1);                            // make sure a0 is less than a1
 1648              		.loc 1 508 0
 1649 000e 7A6A     		ldr	r2, [r7, #36]
 1650 0010 3B6A     		ldr	r3, [r7, #32]
 1651 0012 9A42     		cmp	r2, r3
 1652 0014 06DA     		bge	.L71
ARM GAS  C:\Users\seanj\AppData\Local\Temp\ccw9gLN6.s 			page 39


 1653              		.loc 1 508 0 is_stmt 0 discriminator 1
 1654 0016 07F12403 		add	r3, r7, #36
 1655 001a 1946     		mov	r1, r3
 1656 001c 07F12000 		add	r0, r7, #32
 1657 0020 FFF7FEFF 		bl	Swap
 1658              	.L71:
 509:oled.c        ****     if ((a0 < 0) || (a1 > 8)) return;                       // make sure a0 and a1 are between 0 an
 1659              		.loc 1 509 0 is_stmt 1
 1660 0024 3B6A     		ldr	r3, [r7, #32]
 1661 0026 002B     		cmp	r3, #0
 1662 0028 1CDB     		blt	.L75
 1663              		.loc 1 509 0 is_stmt 0 discriminator 1
 1664 002a 7B6A     		ldr	r3, [r7, #36]
 1665 002c 082B     		cmp	r3, #8
 1666 002e 19DC     		bgt	.L75
 510:oled.c        **** 
 511:oled.c        ****     uint8 octants = (0xFF >> (8-a1)) & (0xFF << a0);    
 1667              		.loc 1 511 0 is_stmt 1
 1668 0030 7B6A     		ldr	r3, [r7, #36]
 1669 0032 C3F10803 		rsb	r3, r3, #8
 1670 0036 FF22     		movs	r2, #255
 1671 0038 42FA03F3 		asr	r3, r2, r3
 1672 003c 5AB2     		sxtb	r2, r3
 1673 003e 3B6A     		ldr	r3, [r7, #32]
 1674 0040 FF21     		movs	r1, #255
 1675 0042 01FA03F3 		lsl	r3, r1, r3
 1676 0046 5BB2     		sxtb	r3, r3
 1677 0048 1340     		ands	r3, r3, r2
 1678 004a 5BB2     		sxtb	r3, r3
 1679 004c FB75     		strb	r3, [r7, #23]
 512:oled.c        ****     BresenhamCircleAlgorithm(oled, xc, yc, 0, r, octants);  // draw circular sector ("pie") using B
 1680              		.loc 1 512 0
 1681 004e FB7D     		ldrb	r3, [r7, #23]	@ zero_extendqisi2
 1682 0050 0193     		str	r3, [sp, #4]
 1683 0052 3B68     		ldr	r3, [r7]
 1684 0054 0093     		str	r3, [sp]
 1685 0056 0023     		movs	r3, #0
 1686 0058 7A68     		ldr	r2, [r7, #4]
 1687 005a B968     		ldr	r1, [r7, #8]
 1688 005c F868     		ldr	r0, [r7, #12]
 1689 005e FFF7FEFF 		bl	BresenhamCircleAlgorithm
 1690 0062 00E0     		b	.L70
 1691              	.L75:
 509:oled.c        ****     if ((a0 < 0) || (a1 > 8)) return;                       // make sure a0 and a1 are between 0 an
 1692              		.loc 1 509 0
 1693 0064 00BF     		nop
 1694              	.L70:
 513:oled.c        **** }
 1695              		.loc 1 513 0
 1696 0066 1837     		adds	r7, r7, #24
 1697              		.cfi_def_cfa_offset 8
 1698 0068 BD46     		mov	sp, r7
 1699              		.cfi_def_cfa_register 13
 1700              		@ sp needed
 1701 006a 80BD     		pop	{r7, pc}
 1702              		.cfi_endproc
 1703              	.LFE87:
ARM GAS  C:\Users\seanj\AppData\Local\Temp\ccw9gLN6.s 			page 40


 1704              		.size	oled_DrawPie, .-oled_DrawPie
 1705              		.section	.text.oled_DispBitmap,"ax",%progbits
 1706              		.align	2
 1707              		.global	oled_DispBitmap
 1708              		.thumb
 1709              		.thumb_func
 1710              		.type	oled_DispBitmap, %function
 1711              	oled_DispBitmap:
 1712              	.LFB88:
 514:oled.c        **** 
 515:oled.c        **** //======================================
 516:oled.c        **** // oled_DispBitmap()
 517:oled.c        **** // this function displays the given bitmap
 518:oled.c        **** // with its top left corner at (x0, y0). 
 519:oled.c        **** // Option for how the bitmap is displayed 
 520:oled.c        **** // can be found in the user manual and can
 521:oled.c        **** // be set using oled_SetBmMode() 
 522:oled.c        **** //
 523:oled.c        **** // Parameters:
 524:oled.c        **** //     oled - pointer to a oled_t structure
 525:oled.c        **** //     x0 - x-coordinate for upper left corner of bitmap
 526:oled.c        **** //     y0 - y-coordinate for upper left corner of bitmap
 527:oled.c        **** //     bitmap - pointer to an array containing pixel values 
 528:oled.c        **** //              (.xbm format)
 529:oled.c        **** //     width - width of the bitmap (in pixels)
 530:oled.c        **** //     height - height of the bitmap (in pixels)
 531:oled.c        **** //======================================
 532:oled.c        **** void oled_DispBitmap(oled_t * oled, int x0, int y0, const uint8 * bitmap, uint16 width, uint16 heig
 1713              		.loc 1 532 0
 1714              		.cfi_startproc
 1715              		@ args = 8, pretend = 0, frame = 32
 1716              		@ frame_needed = 1, uses_anonymous_args = 0
 1717 0000 90B5     		push	{r4, r7, lr}
 1718              		.cfi_def_cfa_offset 12
 1719              		.cfi_offset 4, -12
 1720              		.cfi_offset 7, -8
 1721              		.cfi_offset 14, -4
 1722 0002 8BB0     		sub	sp, sp, #44
 1723              		.cfi_def_cfa_offset 56
 1724 0004 02AF     		add	r7, sp, #8
 1725              		.cfi_def_cfa 7, 48
 1726 0006 F860     		str	r0, [r7, #12]
 1727 0008 B960     		str	r1, [r7, #8]
 1728 000a 7A60     		str	r2, [r7, #4]
 1729 000c 3B60     		str	r3, [r7]
 1730              	.LBB3:
 533:oled.c        ****     uint8 color;
 534:oled.c        ****     for (int i=0; i<height; i++){
 1731              		.loc 1 534 0
 1732 000e 0023     		movs	r3, #0
 1733 0010 FB61     		str	r3, [r7, #28]
 1734 0012 07E1     		b	.L77
 1735              	.L94:
 1736              	.LBB4:
 535:oled.c        ****         for (int j=0; j<width; j++){
 1737              		.loc 1 535 0
 1738 0014 0023     		movs	r3, #0
ARM GAS  C:\Users\seanj\AppData\Local\Temp\ccw9gLN6.s 			page 41


 1739 0016 BB61     		str	r3, [r7, #24]
 1740 0018 FCE0     		b	.L78
 1741              	.L93:
 536:oled.c        ****             color = (bitmap[i*((width-1)/8 + 1) + j/8] >> (j%8)) & 0x01;                // get colo
 1742              		.loc 1 536 0
 1743 001a 3B8E     		ldrh	r3, [r7, #48]
 1744 001c 013B     		subs	r3, r3, #1
 1745 001e 002B     		cmp	r3, #0
 1746 0020 00DA     		bge	.L79
 1747 0022 0733     		adds	r3, r3, #7
 1748              	.L79:
 1749 0024 DB10     		asrs	r3, r3, #3
 1750 0026 0133     		adds	r3, r3, #1
 1751 0028 FA69     		ldr	r2, [r7, #28]
 1752 002a 02FB03F2 		mul	r2, r2, r3
 1753 002e BB69     		ldr	r3, [r7, #24]
 1754 0030 002B     		cmp	r3, #0
 1755 0032 00DA     		bge	.L80
 1756 0034 0733     		adds	r3, r3, #7
 1757              	.L80:
 1758 0036 DB10     		asrs	r3, r3, #3
 1759 0038 1344     		add	r3, r3, r2
 1760 003a 1A46     		mov	r2, r3
 1761 003c 3B68     		ldr	r3, [r7]
 1762 003e 1344     		add	r3, r3, r2
 1763 0040 1B78     		ldrb	r3, [r3]	@ zero_extendqisi2
 1764 0042 1946     		mov	r1, r3
 1765 0044 BA69     		ldr	r2, [r7, #24]
 1766 0046 7C4B     		ldr	r3, .L95
 1767 0048 1340     		ands	r3, r3, r2
 1768 004a 002B     		cmp	r3, #0
 1769 004c 03DA     		bge	.L81
 1770 004e 013B     		subs	r3, r3, #1
 1771 0050 63F00703 		orn	r3, r3, #7
 1772 0054 0133     		adds	r3, r3, #1
 1773              	.L81:
 1774 0056 41FA03F3 		asr	r3, r1, r3
 1775 005a DBB2     		uxtb	r3, r3
 1776 005c 03F00103 		and	r3, r3, #1
 1777 0060 FB75     		strb	r3, [r7, #23]
 537:oled.c        ****             
 538:oled.c        ****             if (oled->bmMode == OLED_BM_NORMAL){                                        // OLED_BM_
 1778              		.loc 1 538 0
 1779 0062 FB68     		ldr	r3, [r7, #12]
 1780 0064 1B7E     		ldrb	r3, [r3, #24]	@ zero_extendqisi2
 1781 0066 002B     		cmp	r3, #0
 1782 0068 14D1     		bne	.L82
 539:oled.c        ****                 WriteGRAM(oled, x0+j, y0+i, x0+j, y0+i, color);
 1783              		.loc 1 539 0
 1784 006a BA68     		ldr	r2, [r7, #8]
 1785 006c BB69     		ldr	r3, [r7, #24]
 1786 006e D118     		adds	r1, r2, r3
 1787 0070 7A68     		ldr	r2, [r7, #4]
 1788 0072 FB69     		ldr	r3, [r7, #28]
 1789 0074 D018     		adds	r0, r2, r3
 1790 0076 BA68     		ldr	r2, [r7, #8]
 1791 0078 BB69     		ldr	r3, [r7, #24]
ARM GAS  C:\Users\seanj\AppData\Local\Temp\ccw9gLN6.s 			page 42


 1792 007a D418     		adds	r4, r2, r3
 1793 007c 7A68     		ldr	r2, [r7, #4]
 1794 007e FB69     		ldr	r3, [r7, #28]
 1795 0080 1344     		add	r3, r3, r2
 1796 0082 FA7D     		ldrb	r2, [r7, #23]	@ zero_extendqisi2
 1797 0084 0192     		str	r2, [sp, #4]
 1798 0086 0093     		str	r3, [sp]
 1799 0088 2346     		mov	r3, r4
 1800 008a 0246     		mov	r2, r0
 1801 008c F868     		ldr	r0, [r7, #12]
 1802 008e FFF7FEFF 		bl	WriteGRAM
 1803 0092 1CE0     		b	.L83
 1804              	.L82:
 540:oled.c        ****             }
 541:oled.c        ****             else if (oled->bmMode == OLED_BM_INV){                                      // OLED_BM_
 1805              		.loc 1 541 0
 1806 0094 FB68     		ldr	r3, [r7, #12]
 1807 0096 1B7E     		ldrb	r3, [r3, #24]	@ zero_extendqisi2
 1808 0098 012B     		cmp	r3, #1
 1809 009a 18D1     		bne	.L83
 542:oled.c        ****                 WriteGRAM(oled, x0+j, y0+i, x0+j, y0+i, ~(color | 0xfe));
 1810              		.loc 1 542 0
 1811 009c BA68     		ldr	r2, [r7, #8]
 1812 009e BB69     		ldr	r3, [r7, #24]
 1813 00a0 D118     		adds	r1, r2, r3
 1814 00a2 7A68     		ldr	r2, [r7, #4]
 1815 00a4 FB69     		ldr	r3, [r7, #28]
 1816 00a6 D018     		adds	r0, r2, r3
 1817 00a8 BA68     		ldr	r2, [r7, #8]
 1818 00aa BB69     		ldr	r3, [r7, #24]
 1819 00ac D418     		adds	r4, r2, r3
 1820 00ae 7A68     		ldr	r2, [r7, #4]
 1821 00b0 FB69     		ldr	r3, [r7, #28]
 1822 00b2 1344     		add	r3, r3, r2
 1823 00b4 FA7D     		ldrb	r2, [r7, #23]
 1824 00b6 62F00102 		orn	r2, r2, #1
 1825 00ba D2B2     		uxtb	r2, r2
 1826 00bc D243     		mvns	r2, r2
 1827 00be D2B2     		uxtb	r2, r2
 1828 00c0 0192     		str	r2, [sp, #4]
 1829 00c2 0093     		str	r3, [sp]
 1830 00c4 2346     		mov	r3, r4
 1831 00c6 0246     		mov	r2, r0
 1832 00c8 F868     		ldr	r0, [r7, #12]
 1833 00ca FFF7FEFF 		bl	WriteGRAM
 1834              	.L83:
 543:oled.c        ****             }
 544:oled.c        ****             if (oled->bmMode == OLED_BM_WHITE_TRAN){                                    // OLED_BM_
 1835              		.loc 1 544 0
 1836 00ce FB68     		ldr	r3, [r7, #12]
 1837 00d0 1B7E     		ldrb	r3, [r3, #24]	@ zero_extendqisi2
 1838 00d2 022B     		cmp	r3, #2
 1839 00d4 19D1     		bne	.L84
 545:oled.c        ****                 if (color == 1) WriteGRAM(oled, x0+j, y0+i, x0+j, y0+i, oled->color);   
 1840              		.loc 1 545 0
 1841 00d6 FB7D     		ldrb	r3, [r7, #23]	@ zero_extendqisi2
 1842 00d8 012B     		cmp	r3, #1
ARM GAS  C:\Users\seanj\AppData\Local\Temp\ccw9gLN6.s 			page 43


 1843 00da 40F09880 		bne	.L86
 1844              		.loc 1 545 0 is_stmt 0 discriminator 1
 1845 00de BA68     		ldr	r2, [r7, #8]
 1846 00e0 BB69     		ldr	r3, [r7, #24]
 1847 00e2 D118     		adds	r1, r2, r3
 1848 00e4 7A68     		ldr	r2, [r7, #4]
 1849 00e6 FB69     		ldr	r3, [r7, #28]
 1850 00e8 D018     		adds	r0, r2, r3
 1851 00ea BA68     		ldr	r2, [r7, #8]
 1852 00ec BB69     		ldr	r3, [r7, #24]
 1853 00ee D418     		adds	r4, r2, r3
 1854 00f0 7A68     		ldr	r2, [r7, #4]
 1855 00f2 FB69     		ldr	r3, [r7, #28]
 1856 00f4 1344     		add	r3, r3, r2
 1857 00f6 FA68     		ldr	r2, [r7, #12]
 1858 00f8 527C     		ldrb	r2, [r2, #17]	@ zero_extendqisi2
 1859 00fa 0192     		str	r2, [sp, #4]
 1860 00fc 0093     		str	r3, [sp]
 1861 00fe 2346     		mov	r3, r4
 1862 0100 0246     		mov	r2, r0
 1863 0102 F868     		ldr	r0, [r7, #12]
 1864 0104 FFF7FEFF 		bl	WriteGRAM
 1865 0108 81E0     		b	.L86
 1866              	.L84:
 546:oled.c        ****             }
 547:oled.c        ****             else if (oled->bmMode == OLED_BM_BLACK_TRAN){                               // OLED_BM_
 1867              		.loc 1 547 0 is_stmt 1
 1868 010a FB68     		ldr	r3, [r7, #12]
 1869 010c 1B7E     		ldrb	r3, [r3, #24]	@ zero_extendqisi2
 1870 010e 032B     		cmp	r3, #3
 1871 0110 18D1     		bne	.L87
 548:oled.c        ****                 if (color == 0) WriteGRAM(oled, x0+j, y0+i, x0+j, y0+i, oled->color);   
 1872              		.loc 1 548 0
 1873 0112 FB7D     		ldrb	r3, [r7, #23]	@ zero_extendqisi2
 1874 0114 002B     		cmp	r3, #0
 1875 0116 7AD1     		bne	.L86
 1876              		.loc 1 548 0 is_stmt 0 discriminator 1
 1877 0118 BA68     		ldr	r2, [r7, #8]
 1878 011a BB69     		ldr	r3, [r7, #24]
 1879 011c D118     		adds	r1, r2, r3
 1880 011e 7A68     		ldr	r2, [r7, #4]
 1881 0120 FB69     		ldr	r3, [r7, #28]
 1882 0122 D018     		adds	r0, r2, r3
 1883 0124 BA68     		ldr	r2, [r7, #8]
 1884 0126 BB69     		ldr	r3, [r7, #24]
 1885 0128 D418     		adds	r4, r2, r3
 1886 012a 7A68     		ldr	r2, [r7, #4]
 1887 012c FB69     		ldr	r3, [r7, #28]
 1888 012e 1344     		add	r3, r3, r2
 1889 0130 FA68     		ldr	r2, [r7, #12]
 1890 0132 527C     		ldrb	r2, [r2, #17]	@ zero_extendqisi2
 1891 0134 0192     		str	r2, [sp, #4]
 1892 0136 0093     		str	r3, [sp]
 1893 0138 2346     		mov	r3, r4
 1894 013a 0246     		mov	r2, r0
 1895 013c F868     		ldr	r0, [r7, #12]
 1896 013e FFF7FEFF 		bl	WriteGRAM
ARM GAS  C:\Users\seanj\AppData\Local\Temp\ccw9gLN6.s 			page 44


 1897 0142 64E0     		b	.L86
 1898              	.L87:
 549:oled.c        ****             }
 550:oled.c        ****             else if (oled->bmMode == OLED_BM_WHITE_FILL){                               // OLED_BM_
 1899              		.loc 1 550 0 is_stmt 1
 1900 0144 FB68     		ldr	r3, [r7, #12]
 1901 0146 1B7E     		ldrb	r3, [r3, #24]	@ zero_extendqisi2
 1902 0148 042B     		cmp	r3, #4
 1903 014a 2ED1     		bne	.L89
 551:oled.c        ****                 if (color == 1) WriteGRAM(oled, x0+j, y0+i, x0+j, y0+i, oled->color);
 1904              		.loc 1 551 0
 1905 014c FB7D     		ldrb	r3, [r7, #23]	@ zero_extendqisi2
 1906 014e 012B     		cmp	r3, #1
 1907 0150 15D1     		bne	.L90
 1908              		.loc 1 551 0 is_stmt 0 discriminator 1
 1909 0152 BA68     		ldr	r2, [r7, #8]
 1910 0154 BB69     		ldr	r3, [r7, #24]
 1911 0156 D118     		adds	r1, r2, r3
 1912 0158 7A68     		ldr	r2, [r7, #4]
 1913 015a FB69     		ldr	r3, [r7, #28]
 1914 015c D018     		adds	r0, r2, r3
 1915 015e BA68     		ldr	r2, [r7, #8]
 1916 0160 BB69     		ldr	r3, [r7, #24]
 1917 0162 D418     		adds	r4, r2, r3
 1918 0164 7A68     		ldr	r2, [r7, #4]
 1919 0166 FB69     		ldr	r3, [r7, #28]
 1920 0168 1344     		add	r3, r3, r2
 1921 016a FA68     		ldr	r2, [r7, #12]
 1922 016c 527C     		ldrb	r2, [r2, #17]	@ zero_extendqisi2
 1923 016e 0192     		str	r2, [sp, #4]
 1924 0170 0093     		str	r3, [sp]
 1925 0172 2346     		mov	r3, r4
 1926 0174 0246     		mov	r2, r0
 1927 0176 F868     		ldr	r0, [r7, #12]
 1928 0178 FFF7FEFF 		bl	WriteGRAM
 1929 017c 47E0     		b	.L86
 1930              	.L90:
 552:oled.c        ****                 else WriteGRAM(oled, x0+j, y0+i, x0+j, y0+i, oled->bkColor);
 1931              		.loc 1 552 0 is_stmt 1
 1932 017e BA68     		ldr	r2, [r7, #8]
 1933 0180 BB69     		ldr	r3, [r7, #24]
 1934 0182 D118     		adds	r1, r2, r3
 1935 0184 7A68     		ldr	r2, [r7, #4]
 1936 0186 FB69     		ldr	r3, [r7, #28]
 1937 0188 D018     		adds	r0, r2, r3
 1938 018a BA68     		ldr	r2, [r7, #8]
 1939 018c BB69     		ldr	r3, [r7, #24]
 1940 018e D418     		adds	r4, r2, r3
 1941 0190 7A68     		ldr	r2, [r7, #4]
 1942 0192 FB69     		ldr	r3, [r7, #28]
 1943 0194 1344     		add	r3, r3, r2
 1944 0196 FA68     		ldr	r2, [r7, #12]
 1945 0198 127C     		ldrb	r2, [r2, #16]	@ zero_extendqisi2
 1946 019a 0192     		str	r2, [sp, #4]
 1947 019c 0093     		str	r3, [sp]
 1948 019e 2346     		mov	r3, r4
 1949 01a0 0246     		mov	r2, r0
ARM GAS  C:\Users\seanj\AppData\Local\Temp\ccw9gLN6.s 			page 45


 1950 01a2 F868     		ldr	r0, [r7, #12]
 1951 01a4 FFF7FEFF 		bl	WriteGRAM
 1952 01a8 31E0     		b	.L86
 1953              	.L89:
 553:oled.c        ****             }
 554:oled.c        ****             else if (oled->bmMode ==  OLED_BM_BLACK_FILL){                              // OLED_BM_
 1954              		.loc 1 554 0
 1955 01aa FB68     		ldr	r3, [r7, #12]
 1956 01ac 1B7E     		ldrb	r3, [r3, #24]	@ zero_extendqisi2
 1957 01ae 052B     		cmp	r3, #5
 1958 01b0 2DD1     		bne	.L86
 555:oled.c        ****                 if (color == 0) WriteGRAM(oled, x0+j, y0+i, x0+j, y0+i, oled->color); 
 1959              		.loc 1 555 0
 1960 01b2 FB7D     		ldrb	r3, [r7, #23]	@ zero_extendqisi2
 1961 01b4 002B     		cmp	r3, #0
 1962 01b6 15D1     		bne	.L92
 1963              		.loc 1 555 0 is_stmt 0 discriminator 1
 1964 01b8 BA68     		ldr	r2, [r7, #8]
 1965 01ba BB69     		ldr	r3, [r7, #24]
 1966 01bc D118     		adds	r1, r2, r3
 1967 01be 7A68     		ldr	r2, [r7, #4]
 1968 01c0 FB69     		ldr	r3, [r7, #28]
 1969 01c2 D018     		adds	r0, r2, r3
 1970 01c4 BA68     		ldr	r2, [r7, #8]
 1971 01c6 BB69     		ldr	r3, [r7, #24]
 1972 01c8 D418     		adds	r4, r2, r3
 1973 01ca 7A68     		ldr	r2, [r7, #4]
 1974 01cc FB69     		ldr	r3, [r7, #28]
 1975 01ce 1344     		add	r3, r3, r2
 1976 01d0 FA68     		ldr	r2, [r7, #12]
 1977 01d2 527C     		ldrb	r2, [r2, #17]	@ zero_extendqisi2
 1978 01d4 0192     		str	r2, [sp, #4]
 1979 01d6 0093     		str	r3, [sp]
 1980 01d8 2346     		mov	r3, r4
 1981 01da 0246     		mov	r2, r0
 1982 01dc F868     		ldr	r0, [r7, #12]
 1983 01de FFF7FEFF 		bl	WriteGRAM
 1984 01e2 14E0     		b	.L86
 1985              	.L92:
 556:oled.c        ****                 else WriteGRAM(oled, x0+j, y0+i, x0+j, y0+i, oled->bkColor);
 1986              		.loc 1 556 0 is_stmt 1
 1987 01e4 BA68     		ldr	r2, [r7, #8]
 1988 01e6 BB69     		ldr	r3, [r7, #24]
 1989 01e8 D118     		adds	r1, r2, r3
 1990 01ea 7A68     		ldr	r2, [r7, #4]
 1991 01ec FB69     		ldr	r3, [r7, #28]
 1992 01ee D018     		adds	r0, r2, r3
 1993 01f0 BA68     		ldr	r2, [r7, #8]
 1994 01f2 BB69     		ldr	r3, [r7, #24]
 1995 01f4 D418     		adds	r4, r2, r3
 1996 01f6 7A68     		ldr	r2, [r7, #4]
 1997 01f8 FB69     		ldr	r3, [r7, #28]
 1998 01fa 1344     		add	r3, r3, r2
 1999 01fc FA68     		ldr	r2, [r7, #12]
 2000 01fe 127C     		ldrb	r2, [r2, #16]	@ zero_extendqisi2
 2001 0200 0192     		str	r2, [sp, #4]
 2002 0202 0093     		str	r3, [sp]
ARM GAS  C:\Users\seanj\AppData\Local\Temp\ccw9gLN6.s 			page 46


 2003 0204 2346     		mov	r3, r4
 2004 0206 0246     		mov	r2, r0
 2005 0208 F868     		ldr	r0, [r7, #12]
 2006 020a FFF7FEFF 		bl	WriteGRAM
 2007              	.L86:
 535:oled.c        ****             color = (bitmap[i*((width-1)/8 + 1) + j/8] >> (j%8)) & 0x01;                // get colo
 2008              		.loc 1 535 0 discriminator 2
 2009 020e BB69     		ldr	r3, [r7, #24]
 2010 0210 0133     		adds	r3, r3, #1
 2011 0212 BB61     		str	r3, [r7, #24]
 2012              	.L78:
 535:oled.c        ****             color = (bitmap[i*((width-1)/8 + 1) + j/8] >> (j%8)) & 0x01;                // get colo
 2013              		.loc 1 535 0 is_stmt 0 discriminator 1
 2014 0214 3A8E     		ldrh	r2, [r7, #48]
 2015 0216 BB69     		ldr	r3, [r7, #24]
 2016 0218 9A42     		cmp	r2, r3
 2017 021a 3FF7FEAE 		bgt	.L93
 2018              	.LBE4:
 534:oled.c        ****         for (int j=0; j<width; j++){
 2019              		.loc 1 534 0 is_stmt 1 discriminator 2
 2020 021e FB69     		ldr	r3, [r7, #28]
 2021 0220 0133     		adds	r3, r3, #1
 2022 0222 FB61     		str	r3, [r7, #28]
 2023              	.L77:
 534:oled.c        ****         for (int j=0; j<width; j++){
 2024              		.loc 1 534 0 is_stmt 0 discriminator 1
 2025 0224 BA8E     		ldrh	r2, [r7, #52]
 2026 0226 FB69     		ldr	r3, [r7, #28]
 2027 0228 9A42     		cmp	r2, r3
 2028 022a 3FF7F3AE 		bgt	.L94
 2029              	.LBE3:
 557:oled.c        ****             }
 558:oled.c        ****         }
 559:oled.c        ****     }
 560:oled.c        **** }
 2030              		.loc 1 560 0 is_stmt 1
 2031 022e 00BF     		nop
 2032 0230 2437     		adds	r7, r7, #36
 2033              		.cfi_def_cfa_offset 12
 2034 0232 BD46     		mov	sp, r7
 2035              		.cfi_def_cfa_register 13
 2036              		@ sp needed
 2037 0234 90BD     		pop	{r4, r7, pc}
 2038              	.L96:
 2039 0236 00BF     		.align	2
 2040              	.L95:
 2041 0238 07000080 		.word	-2147483641
 2042              		.cfi_endproc
 2043              	.LFE88:
 2044              		.size	oled_DispBitmap, .-oled_DispBitmap
 2045              		.section	.text.oled_DispChar,"ax",%progbits
 2046              		.align	2
 2047              		.global	oled_DispChar
 2048              		.thumb
 2049              		.thumb_func
 2050              		.type	oled_DispChar, %function
 2051              	oled_DispChar:
ARM GAS  C:\Users\seanj\AppData\Local\Temp\ccw9gLN6.s 			page 47


 2052              	.LFB89:
 561:oled.c        **** 
 562:oled.c        **** //========================================
 563:oled.c        **** // oled_DispChar()
 564:oled.c        **** // this function displays the character c
 565:oled.c        **** // with its top left corner at (x0, y0). The
 566:oled.c        **** // character is displayed in the font specified
 567:oled.c        **** // by oled.font. Option for how the character is 
 568:oled.c        **** // displayed can be found in the user manual 
 569:oled.c        **** // and can be set using oled_SetTextMode()
 570:oled.c        **** //
 571:oled.c        **** // Parameters:
 572:oled.c        **** //     oled - pointer to a oled_t structure
 573:oled.c        **** //     x0 - x-coordinate for upper left corner of 
 574:oled.c        **** //          the character
 575:oled.c        **** //     y0 - y-coordinate for upper left corner of 
 576:oled.c        **** //          the character
 577:oled.c        **** //     c - character to be displayed
 578:oled.c        **** //========================================
 579:oled.c        **** void oled_DispChar(oled_t * oled, int x0, int y0, const char c){
 2053              		.loc 1 579 0
 2054              		.cfi_startproc
 2055              		@ args = 0, pretend = 0, frame = 24
 2056              		@ frame_needed = 1, uses_anonymous_args = 0
 2057 0000 80B5     		push	{r7, lr}
 2058              		.cfi_def_cfa_offset 8
 2059              		.cfi_offset 7, -8
 2060              		.cfi_offset 14, -4
 2061 0002 88B0     		sub	sp, sp, #32
 2062              		.cfi_def_cfa_offset 40
 2063 0004 02AF     		add	r7, sp, #8
 2064              		.cfi_def_cfa 7, 32
 2065 0006 F860     		str	r0, [r7, #12]
 2066 0008 B960     		str	r1, [r7, #8]
 2067 000a 7A60     		str	r2, [r7, #4]
 2068 000c FB70     		strb	r3, [r7, #3]
 580:oled.c        ****     uint8 bmMode = oled_GetBmMode(oled);        // store current bitmap mode
 2069              		.loc 1 580 0
 2070 000e F868     		ldr	r0, [r7, #12]
 2071 0010 FFF7FEFF 		bl	oled_GetBmMode
 2072 0014 0346     		mov	r3, r0
 2073 0016 FB75     		strb	r3, [r7, #23]
 581:oled.c        ****     oled_SetBmMode(oled, oled->textMode);       // set bmMode to text mode
 2074              		.loc 1 581 0
 2075 0018 FB68     		ldr	r3, [r7, #12]
 2076 001a 5B7E     		ldrb	r3, [r3, #25]	@ zero_extendqisi2
 2077 001c 1946     		mov	r1, r3
 2078 001e F868     		ldr	r0, [r7, #12]
 2079 0020 FFF7FEFF 		bl	oled_SetBmMode
 582:oled.c        ****     int i = c - 32;
 2080              		.loc 1 582 0
 2081 0024 FB78     		ldrb	r3, [r7, #3]	@ zero_extendqisi2
 2082 0026 203B     		subs	r3, r3, #32
 2083 0028 3B61     		str	r3, [r7, #16]
 583:oled.c        ****     if ((i < 0) || (i > 94)) return;            // character out of range
 2084              		.loc 1 583 0
 2085 002a 3B69     		ldr	r3, [r7, #16]
ARM GAS  C:\Users\seanj\AppData\Local\Temp\ccw9gLN6.s 			page 48


 2086 002c 002B     		cmp	r3, #0
 2087 002e 1EDB     		blt	.L101
 2088              		.loc 1 583 0 is_stmt 0 discriminator 1
 2089 0030 3B69     		ldr	r3, [r7, #16]
 2090 0032 5E2B     		cmp	r3, #94
 2091 0034 1BDC     		bgt	.L101
 584:oled.c        ****     oled_DispBitmap(oled, x0, y0, oled->font->characters[i], oled->font->width, oled->font->height)
 2092              		.loc 1 584 0 is_stmt 1
 2093 0036 FB68     		ldr	r3, [r7, #12]
 2094 0038 5A69     		ldr	r2, [r3, #20]
 2095 003a 3B69     		ldr	r3, [r7, #16]
 2096 003c 5B01     		lsls	r3, r3, #5
 2097 003e 1344     		add	r3, r3, r2
 2098 0040 991C     		adds	r1, r3, #2
 2099 0042 FB68     		ldr	r3, [r7, #12]
 2100 0044 5B69     		ldr	r3, [r3, #20]
 2101 0046 1B78     		ldrb	r3, [r3]	@ zero_extendqisi2
 2102 0048 9BB2     		uxth	r3, r3
 2103 004a FA68     		ldr	r2, [r7, #12]
 2104 004c 5269     		ldr	r2, [r2, #20]
 2105 004e 5278     		ldrb	r2, [r2, #1]	@ zero_extendqisi2
 2106 0050 92B2     		uxth	r2, r2
 2107 0052 0192     		str	r2, [sp, #4]
 2108 0054 0093     		str	r3, [sp]
 2109 0056 0B46     		mov	r3, r1
 2110 0058 7A68     		ldr	r2, [r7, #4]
 2111 005a B968     		ldr	r1, [r7, #8]
 2112 005c F868     		ldr	r0, [r7, #12]
 2113 005e FFF7FEFF 		bl	oled_DispBitmap
 585:oled.c        ****     oled_SetBmMode(oled, bmMode);               // restore bitmap mode
 2114              		.loc 1 585 0
 2115 0062 FB7D     		ldrb	r3, [r7, #23]	@ zero_extendqisi2
 2116 0064 1946     		mov	r1, r3
 2117 0066 F868     		ldr	r0, [r7, #12]
 2118 0068 FFF7FEFF 		bl	oled_SetBmMode
 2119 006c 00E0     		b	.L97
 2120              	.L101:
 583:oled.c        ****     if ((i < 0) || (i > 94)) return;            // character out of range
 2121              		.loc 1 583 0
 2122 006e 00BF     		nop
 2123              	.L97:
 586:oled.c        **** }
 2124              		.loc 1 586 0
 2125 0070 1837     		adds	r7, r7, #24
 2126              		.cfi_def_cfa_offset 8
 2127 0072 BD46     		mov	sp, r7
 2128              		.cfi_def_cfa_register 13
 2129              		@ sp needed
 2130 0074 80BD     		pop	{r7, pc}
 2131              		.cfi_endproc
 2132              	.LFE89:
 2133              		.size	oled_DispChar, .-oled_DispChar
 2134 0076 00BF     		.section	.text.oled_DispString,"ax",%progbits
 2135              		.align	2
 2136              		.global	oled_DispString
 2137              		.thumb
 2138              		.thumb_func
ARM GAS  C:\Users\seanj\AppData\Local\Temp\ccw9gLN6.s 			page 49


 2139              		.type	oled_DispString, %function
 2140              	oled_DispString:
 2141              	.LFB90:
 587:oled.c        **** 
 588:oled.c        **** //========================================
 589:oled.c        **** // oled_DispString
 590:oled.c        **** // this function displays the string s
 591:oled.c        **** // with the top left corner of the first character
 592:oled.c        **** // at (x0, y0). The characters are displayed in the 
 593:oled.c        **** // font specified by oled.font. Option for how the 
 594:oled.c        **** // characters are displayed can be found in the user
 595:oled.c        **** // manual and can be set using oled_SetTextMode()
 596:oled.c        **** //
 597:oled.c        **** // Parameters:
 598:oled.c        **** //     oled - pointer to a oled_t structure
 599:oled.c        **** //     x0 - x-coordinate for upper left corner of 
 600:oled.c        **** //          the first character in the string
 601:oled.c        **** //     y0 - y-coordinate for upper left corner of 
 602:oled.c        **** //          the first character in the string
 603:oled.c        **** //     s - pointer to the string
 604:oled.c        **** //========================================
 605:oled.c        **** void oled_DispString(oled_t * oled, int x0, int y0, const char * s){
 2142              		.loc 1 605 0
 2143              		.cfi_startproc
 2144              		@ args = 0, pretend = 0, frame = 24
 2145              		@ frame_needed = 1, uses_anonymous_args = 0
 2146 0000 80B5     		push	{r7, lr}
 2147              		.cfi_def_cfa_offset 8
 2148              		.cfi_offset 7, -8
 2149              		.cfi_offset 14, -4
 2150 0002 86B0     		sub	sp, sp, #24
 2151              		.cfi_def_cfa_offset 32
 2152 0004 00AF     		add	r7, sp, #0
 2153              		.cfi_def_cfa_register 7
 2154 0006 F860     		str	r0, [r7, #12]
 2155 0008 B960     		str	r1, [r7, #8]
 2156 000a 7A60     		str	r2, [r7, #4]
 2157 000c 3B60     		str	r3, [r7]
 606:oled.c        ****     int i = 0, j = 0;
 2158              		.loc 1 606 0
 2159 000e 0023     		movs	r3, #0
 2160 0010 7B61     		str	r3, [r7, #20]
 2161 0012 0023     		movs	r3, #0
 2162 0014 3B61     		str	r3, [r7, #16]
 607:oled.c        ****     while(s[i] != '\0'){                                                // iterate through chars in
 2163              		.loc 1 607 0
 2164 0016 26E0     		b	.L103
 2165              	.L106:
 608:oled.c        ****         if (s[i] == '\n'){                                              // ENTER char, start new li
 2166              		.loc 1 608 0
 2167 0018 7B69     		ldr	r3, [r7, #20]
 2168 001a 3A68     		ldr	r2, [r7]
 2169 001c 1344     		add	r3, r3, r2
 2170 001e 1B78     		ldrb	r3, [r3]	@ zero_extendqisi2
 2171 0020 0A2B     		cmp	r3, #10
 2172 0022 09D1     		bne	.L104
 609:oled.c        ****             y0 += oled->font->height;                                   
ARM GAS  C:\Users\seanj\AppData\Local\Temp\ccw9gLN6.s 			page 50


 2173              		.loc 1 609 0
 2174 0024 FB68     		ldr	r3, [r7, #12]
 2175 0026 5B69     		ldr	r3, [r3, #20]
 2176 0028 5B78     		ldrb	r3, [r3, #1]	@ zero_extendqisi2
 2177 002a 1A46     		mov	r2, r3
 2178 002c 7B68     		ldr	r3, [r7, #4]
 2179 002e 1344     		add	r3, r3, r2
 2180 0030 7B60     		str	r3, [r7, #4]
 610:oled.c        ****             j = 0;
 2181              		.loc 1 610 0
 2182 0032 0023     		movs	r3, #0
 2183 0034 3B61     		str	r3, [r7, #16]
 2184 0036 13E0     		b	.L105
 2185              	.L104:
 611:oled.c        ****         }
 612:oled.c        ****         else {
 613:oled.c        ****             oled_DispChar(oled, x0 + j*oled->font->width, y0, s[i]);    // display char
 2186              		.loc 1 613 0
 2187 0038 FB68     		ldr	r3, [r7, #12]
 2188 003a 5B69     		ldr	r3, [r3, #20]
 2189 003c 1B78     		ldrb	r3, [r3]	@ zero_extendqisi2
 2190 003e 1A46     		mov	r2, r3
 2191 0040 3B69     		ldr	r3, [r7, #16]
 2192 0042 03FB02F2 		mul	r2, r3, r2
 2193 0046 BB68     		ldr	r3, [r7, #8]
 2194 0048 D118     		adds	r1, r2, r3
 2195 004a 7B69     		ldr	r3, [r7, #20]
 2196 004c 3A68     		ldr	r2, [r7]
 2197 004e 1344     		add	r3, r3, r2
 2198 0050 1B78     		ldrb	r3, [r3]	@ zero_extendqisi2
 2199 0052 7A68     		ldr	r2, [r7, #4]
 2200 0054 F868     		ldr	r0, [r7, #12]
 2201 0056 FFF7FEFF 		bl	oled_DispChar
 614:oled.c        ****             j++;
 2202              		.loc 1 614 0
 2203 005a 3B69     		ldr	r3, [r7, #16]
 2204 005c 0133     		adds	r3, r3, #1
 2205 005e 3B61     		str	r3, [r7, #16]
 2206              	.L105:
 615:oled.c        ****         }
 616:oled.c        ****         i++;
 2207              		.loc 1 616 0
 2208 0060 7B69     		ldr	r3, [r7, #20]
 2209 0062 0133     		adds	r3, r3, #1
 2210 0064 7B61     		str	r3, [r7, #20]
 2211              	.L103:
 607:oled.c        ****         if (s[i] == '\n'){                                              // ENTER char, start new li
 2212              		.loc 1 607 0
 2213 0066 7B69     		ldr	r3, [r7, #20]
 2214 0068 3A68     		ldr	r2, [r7]
 2215 006a 1344     		add	r3, r3, r2
 2216 006c 1B78     		ldrb	r3, [r3]	@ zero_extendqisi2
 2217 006e 002B     		cmp	r3, #0
 2218 0070 D2D1     		bne	.L106
 617:oled.c        ****     }
 618:oled.c        **** }
 2219              		.loc 1 618 0
ARM GAS  C:\Users\seanj\AppData\Local\Temp\ccw9gLN6.s 			page 51


 2220 0072 00BF     		nop
 2221 0074 1837     		adds	r7, r7, #24
 2222              		.cfi_def_cfa_offset 8
 2223 0076 BD46     		mov	sp, r7
 2224              		.cfi_def_cfa_register 13
 2225              		@ sp needed
 2226 0078 80BD     		pop	{r7, pc}
 2227              		.cfi_endproc
 2228              	.LFE90:
 2229              		.size	oled_DispString, .-oled_DispString
 2230 007a 00BF     		.section	.text.SetPageAddress,"ax",%progbits
 2231              		.align	2
 2232              		.global	SetPageAddress
 2233              		.thumb
 2234              		.thumb_func
 2235              		.type	SetPageAddress, %function
 2236              	SetPageAddress:
 2237              	.LFB91:
 619:oled.c        **** 
 620:oled.c        **** //======================================
 621:oled.c        **** // SetPageAddress()
 622:oled.c        **** // this function sets the oled's page start 
 623:oled.c        **** // address and page stop address.
 624:oled.c        **** //
 625:oled.c        **** // Parameters:
 626:oled.c        **** //     oled - pointer to a oled_t structure
 627:oled.c        **** //     A - page start address (integer in range 0-7)
 628:oled.c        **** //     B - page end address (integer in range 0-7)
 629:oled.c        **** //======================================
 630:oled.c        **** void SetPageAddress(oled_t * oled, uint8 A, uint8 B)
 631:oled.c        **** {
 2238              		.loc 1 631 0
 2239              		.cfi_startproc
 2240              		@ args = 0, pretend = 0, frame = 8
 2241              		@ frame_needed = 1, uses_anonymous_args = 0
 2242 0000 80B5     		push	{r7, lr}
 2243              		.cfi_def_cfa_offset 8
 2244              		.cfi_offset 7, -8
 2245              		.cfi_offset 14, -4
 2246 0002 82B0     		sub	sp, sp, #8
 2247              		.cfi_def_cfa_offset 16
 2248 0004 00AF     		add	r7, sp, #0
 2249              		.cfi_def_cfa_register 7
 2250 0006 7860     		str	r0, [r7, #4]
 2251 0008 0B46     		mov	r3, r1
 2252 000a FB70     		strb	r3, [r7, #3]
 2253 000c 1346     		mov	r3, r2
 2254 000e BB70     		strb	r3, [r7, #2]
 632:oled.c        ****     if ((A > 7) || (B > 7)) return;                 // check for valid page addresses
 2255              		.loc 1 632 0
 2256 0010 FB78     		ldrb	r3, [r7, #3]	@ zero_extendqisi2
 2257 0012 072B     		cmp	r3, #7
 2258 0014 1FD8     		bhi	.L111
 2259              		.loc 1 632 0 is_stmt 0 discriminator 1
 2260 0016 BB78     		ldrb	r3, [r7, #2]	@ zero_extendqisi2
 2261 0018 072B     		cmp	r3, #7
 2262 001a 1CD8     		bhi	.L111
ARM GAS  C:\Users\seanj\AppData\Local\Temp\ccw9gLN6.s 			page 52


 633:oled.c        ****     oled->SendStart(oled->slaveAddr, 0x00);         // generate Start condition and send slave addr
 2263              		.loc 1 633 0 is_stmt 1
 2264 001c 7B68     		ldr	r3, [r7, #4]
 2265 001e 5B68     		ldr	r3, [r3, #4]
 2266 0020 7A68     		ldr	r2, [r7, #4]
 2267 0022 1278     		ldrb	r2, [r2]	@ zero_extendqisi2
 2268 0024 0021     		movs	r1, #0
 2269 0026 1046     		mov	r0, r2
 2270 0028 9847     		blx	r3
 634:oled.c        ****     oled->WriteByte(0x00);                          // send control byte
 2271              		.loc 1 634 0
 2272 002a 7B68     		ldr	r3, [r7, #4]
 2273 002c DB68     		ldr	r3, [r3, #12]
 2274 002e 0020     		movs	r0, #0
 2275 0030 9847     		blx	r3
 635:oled.c        ****     oled->WriteByte(SSD1306_SETPAGEADDRESS);        // send Set Page Address command
 2276              		.loc 1 635 0
 2277 0032 7B68     		ldr	r3, [r7, #4]
 2278 0034 DB68     		ldr	r3, [r3, #12]
 2279 0036 2220     		movs	r0, #34
 2280 0038 9847     		blx	r3
 636:oled.c        ****     oled->WriteByte(A);                             // send page start address
 2281              		.loc 1 636 0
 2282 003a 7B68     		ldr	r3, [r7, #4]
 2283 003c DB68     		ldr	r3, [r3, #12]
 2284 003e FA78     		ldrb	r2, [r7, #3]	@ zero_extendqisi2
 2285 0040 1046     		mov	r0, r2
 2286 0042 9847     		blx	r3
 637:oled.c        ****     oled->WriteByte(B);                             // send page stop address
 2287              		.loc 1 637 0
 2288 0044 7B68     		ldr	r3, [r7, #4]
 2289 0046 DB68     		ldr	r3, [r3, #12]
 2290 0048 BA78     		ldrb	r2, [r7, #2]	@ zero_extendqisi2
 2291 004a 1046     		mov	r0, r2
 2292 004c 9847     		blx	r3
 638:oled.c        ****     oled->SendStop();                               // generate Stop condition
 2293              		.loc 1 638 0
 2294 004e 7B68     		ldr	r3, [r7, #4]
 2295 0050 9B68     		ldr	r3, [r3, #8]
 2296 0052 9847     		blx	r3
 2297 0054 00E0     		b	.L107
 2298              	.L111:
 632:oled.c        ****     oled->SendStart(oled->slaveAddr, 0x00);         // generate Start condition and send slave addr
 2299              		.loc 1 632 0
 2300 0056 00BF     		nop
 2301              	.L107:
 639:oled.c        **** }
 2302              		.loc 1 639 0
 2303 0058 0837     		adds	r7, r7, #8
 2304              		.cfi_def_cfa_offset 8
 2305 005a BD46     		mov	sp, r7
 2306              		.cfi_def_cfa_register 13
 2307              		@ sp needed
 2308 005c 80BD     		pop	{r7, pc}
 2309              		.cfi_endproc
 2310              	.LFE91:
 2311              		.size	SetPageAddress, .-SetPageAddress
ARM GAS  C:\Users\seanj\AppData\Local\Temp\ccw9gLN6.s 			page 53


 2312 005e 00BF     		.section	.text.SetColumnAddress,"ax",%progbits
 2313              		.align	2
 2314              		.global	SetColumnAddress
 2315              		.thumb
 2316              		.thumb_func
 2317              		.type	SetColumnAddress, %function
 2318              	SetColumnAddress:
 2319              	.LFB92:
 640:oled.c        **** 
 641:oled.c        **** //======================================
 642:oled.c        **** // SetColumnAddress()
 643:oled.c        **** // this function sets the oled's column start 
 644:oled.c        **** // address and column stop address
 645:oled.c        **** //
 646:oled.c        **** // Parameters:
 647:oled.c        **** //     oled - pointer to a oled_t structure
 648:oled.c        **** //     A: column start address (integer in range 0-127)
 649:oled.c        **** //     B: column end address (integer in range 0-127)
 650:oled.c        **** //======================================
 651:oled.c        **** void SetColumnAddress(oled_t * oled, uint8 A, uint8 B)
 652:oled.c        **** {
 2320              		.loc 1 652 0
 2321              		.cfi_startproc
 2322              		@ args = 0, pretend = 0, frame = 8
 2323              		@ frame_needed = 1, uses_anonymous_args = 0
 2324 0000 80B5     		push	{r7, lr}
 2325              		.cfi_def_cfa_offset 8
 2326              		.cfi_offset 7, -8
 2327              		.cfi_offset 14, -4
 2328 0002 82B0     		sub	sp, sp, #8
 2329              		.cfi_def_cfa_offset 16
 2330 0004 00AF     		add	r7, sp, #0
 2331              		.cfi_def_cfa_register 7
 2332 0006 7860     		str	r0, [r7, #4]
 2333 0008 0B46     		mov	r3, r1
 2334 000a FB70     		strb	r3, [r7, #3]
 2335 000c 1346     		mov	r3, r2
 2336 000e BB70     		strb	r3, [r7, #2]
 653:oled.c        ****     if ((A > 127) || (B > 127)) return;             // check for valid column addresses
 2337              		.loc 1 653 0
 2338 0010 97F90330 		ldrsb	r3, [r7, #3]
 2339 0014 002B     		cmp	r3, #0
 2340 0016 20DB     		blt	.L116
 2341              		.loc 1 653 0 is_stmt 0 discriminator 1
 2342 0018 97F90230 		ldrsb	r3, [r7, #2]
 2343 001c 002B     		cmp	r3, #0
 2344 001e 1CDB     		blt	.L116
 654:oled.c        ****     oled->SendStart(oled->slaveAddr, 0x00);         // generate Start condition and send slave addr
 2345              		.loc 1 654 0 is_stmt 1
 2346 0020 7B68     		ldr	r3, [r7, #4]
 2347 0022 5B68     		ldr	r3, [r3, #4]
 2348 0024 7A68     		ldr	r2, [r7, #4]
 2349 0026 1278     		ldrb	r2, [r2]	@ zero_extendqisi2
 2350 0028 0021     		movs	r1, #0
 2351 002a 1046     		mov	r0, r2
 2352 002c 9847     		blx	r3
 655:oled.c        ****     oled->WriteByte(0x00);                          // send control byte
ARM GAS  C:\Users\seanj\AppData\Local\Temp\ccw9gLN6.s 			page 54


 2353              		.loc 1 655 0
 2354 002e 7B68     		ldr	r3, [r7, #4]
 2355 0030 DB68     		ldr	r3, [r3, #12]
 2356 0032 0020     		movs	r0, #0
 2357 0034 9847     		blx	r3
 656:oled.c        ****     oled->WriteByte(SSD1306_SETCOLUMNADDRESS);      // send Set Column Address command
 2358              		.loc 1 656 0
 2359 0036 7B68     		ldr	r3, [r7, #4]
 2360 0038 DB68     		ldr	r3, [r3, #12]
 2361 003a 2120     		movs	r0, #33
 2362 003c 9847     		blx	r3
 657:oled.c        ****     oled->WriteByte(A);                             // send column start address
 2363              		.loc 1 657 0
 2364 003e 7B68     		ldr	r3, [r7, #4]
 2365 0040 DB68     		ldr	r3, [r3, #12]
 2366 0042 FA78     		ldrb	r2, [r7, #3]	@ zero_extendqisi2
 2367 0044 1046     		mov	r0, r2
 2368 0046 9847     		blx	r3
 658:oled.c        ****     oled->WriteByte(B);                             // send column stop address
 2369              		.loc 1 658 0
 2370 0048 7B68     		ldr	r3, [r7, #4]
 2371 004a DB68     		ldr	r3, [r3, #12]
 2372 004c BA78     		ldrb	r2, [r7, #2]	@ zero_extendqisi2
 2373 004e 1046     		mov	r0, r2
 2374 0050 9847     		blx	r3
 659:oled.c        ****     oled->SendStop();                               // generate Stop condition
 2375              		.loc 1 659 0
 2376 0052 7B68     		ldr	r3, [r7, #4]
 2377 0054 9B68     		ldr	r3, [r3, #8]
 2378 0056 9847     		blx	r3
 2379 0058 00E0     		b	.L112
 2380              	.L116:
 653:oled.c        ****     oled->SendStart(oled->slaveAddr, 0x00);         // generate Start condition and send slave addr
 2381              		.loc 1 653 0
 2382 005a 00BF     		nop
 2383              	.L112:
 660:oled.c        **** }
 2384              		.loc 1 660 0
 2385 005c 0837     		adds	r7, r7, #8
 2386              		.cfi_def_cfa_offset 8
 2387 005e BD46     		mov	sp, r7
 2388              		.cfi_def_cfa_register 13
 2389              		@ sp needed
 2390 0060 80BD     		pop	{r7, pc}
 2391              		.cfi_endproc
 2392              	.LFE92:
 2393              		.size	SetColumnAddress, .-SetColumnAddress
 2394 0062 00BF     		.section	.text.WriteGRAM,"ax",%progbits
 2395              		.align	2
 2396              		.global	WriteGRAM
 2397              		.thumb
 2398              		.thumb_func
 2399              		.type	WriteGRAM, %function
 2400              	WriteGRAM:
 2401              	.LFB93:
 661:oled.c        **** 
 662:oled.c        **** //======================================
ARM GAS  C:\Users\seanj\AppData\Local\Temp\ccw9gLN6.s 			page 55


 663:oled.c        **** // WriteGRAM()
 664:oled.c        **** // this functions writes the specified color to
 665:oled.c        **** // the rectangular block of GRAM defined by
 666:oled.c        **** // its upper left corner (x0, y0) and lower right
 667:oled.c        **** // corner (x1, y1)
 668:oled.c        **** //
 669:oled.c        **** // Parameters:
 670:oled.c        **** //     oled - pointer to a oled_t structure
 671:oled.c        **** //     x0 - upper left x-coordinate
 672:oled.c        **** //     y0 - upper left y-coordinate
 673:oled.c        **** //     x1 - lower right x-coordinate
 674:oled.c        **** //     y1 - lower right y-coordinate
 675:oled.c        **** //======================================
 676:oled.c        **** void WriteGRAM(oled_t * oled, int x0, int y0, int x1, int y1, uint8 color)
 677:oled.c        **** {
 2402              		.loc 1 677 0
 2403              		.cfi_startproc
 2404              		@ args = 8, pretend = 0, frame = 32
 2405              		@ frame_needed = 1, uses_anonymous_args = 0
 2406 0000 80B5     		push	{r7, lr}
 2407              		.cfi_def_cfa_offset 8
 2408              		.cfi_offset 7, -8
 2409              		.cfi_offset 14, -4
 2410 0002 88B0     		sub	sp, sp, #32
 2411              		.cfi_def_cfa_offset 40
 2412 0004 00AF     		add	r7, sp, #0
 2413              		.cfi_def_cfa_register 7
 2414 0006 F860     		str	r0, [r7, #12]
 2415 0008 B960     		str	r1, [r7, #8]
 2416 000a 7A60     		str	r2, [r7, #4]
 2417 000c 3B60     		str	r3, [r7]
 678:oled.c        ****     if (x0 < 0) x0 = 0;                                 // ensure x0, y0, x1, y1 are within display
 2418              		.loc 1 678 0
 2419 000e BB68     		ldr	r3, [r7, #8]
 2420 0010 002B     		cmp	r3, #0
 2421 0012 01DA     		bge	.L118
 2422              		.loc 1 678 0 is_stmt 0 discriminator 1
 2423 0014 0023     		movs	r3, #0
 2424 0016 BB60     		str	r3, [r7, #8]
 2425              	.L118:
 679:oled.c        ****     if (x1 > OLED_WIDTH - 1) x1 = OLED_WIDTH - 1;
 2426              		.loc 1 679 0 is_stmt 1
 2427 0018 3B68     		ldr	r3, [r7]
 2428 001a 7F2B     		cmp	r3, #127
 2429 001c 01DD     		ble	.L119
 2430              		.loc 1 679 0 is_stmt 0 discriminator 1
 2431 001e 7F23     		movs	r3, #127
 2432 0020 3B60     		str	r3, [r7]
 2433              	.L119:
 680:oled.c        ****     if (x1 < x0) return;                                                
 2434              		.loc 1 680 0 is_stmt 1
 2435 0022 3A68     		ldr	r2, [r7]
 2436 0024 BB68     		ldr	r3, [r7, #8]
 2437 0026 9A42     		cmp	r2, r3
 2438 0028 C0F2C680 		blt	.L141
 681:oled.c        ****     if (y0 < 0) y0 = 0;
 2439              		.loc 1 681 0
ARM GAS  C:\Users\seanj\AppData\Local\Temp\ccw9gLN6.s 			page 56


 2440 002c 7B68     		ldr	r3, [r7, #4]
 2441 002e 002B     		cmp	r3, #0
 2442 0030 01DA     		bge	.L122
 2443              		.loc 1 681 0 is_stmt 0 discriminator 1
 2444 0032 0023     		movs	r3, #0
 2445 0034 7B60     		str	r3, [r7, #4]
 2446              	.L122:
 682:oled.c        ****     if (y1 > OLED_HEIGHT - 1) y1 = OLED_HEIGHT - 1;
 2447              		.loc 1 682 0 is_stmt 1
 2448 0036 BB6A     		ldr	r3, [r7, #40]
 2449 0038 3F2B     		cmp	r3, #63
 2450 003a 01DD     		ble	.L123
 2451              		.loc 1 682 0 is_stmt 0 discriminator 1
 2452 003c 3F23     		movs	r3, #63
 2453 003e BB62     		str	r3, [r7, #40]
 2454              	.L123:
 683:oled.c        ****     if (y1 < y0) return;
 2455              		.loc 1 683 0 is_stmt 1
 2456 0040 BA6A     		ldr	r2, [r7, #40]
 2457 0042 7B68     		ldr	r3, [r7, #4]
 2458 0044 9A42     		cmp	r2, r3
 2459 0046 C0F2B980 		blt	.L142
 684:oled.c        ****     
 685:oled.c        ****     SetPageAddress(oled, y0/8, y1/8);                   // set the start page address and stop page
 2460              		.loc 1 685 0
 2461 004a 7B68     		ldr	r3, [r7, #4]
 2462 004c 002B     		cmp	r3, #0
 2463 004e 00DA     		bge	.L125
 2464 0050 0733     		adds	r3, r3, #7
 2465              	.L125:
 2466 0052 DB10     		asrs	r3, r3, #3
 2467 0054 D9B2     		uxtb	r1, r3
 2468 0056 BB6A     		ldr	r3, [r7, #40]
 2469 0058 002B     		cmp	r3, #0
 2470 005a 00DA     		bge	.L126
 2471 005c 0733     		adds	r3, r3, #7
 2472              	.L126:
 2473 005e DB10     		asrs	r3, r3, #3
 2474 0060 DBB2     		uxtb	r3, r3
 2475 0062 1A46     		mov	r2, r3
 2476 0064 F868     		ldr	r0, [r7, #12]
 2477 0066 FFF7FEFF 		bl	SetPageAddress
 686:oled.c        ****     SetColumnAddress(oled, x0, x1);                     // set the start column address and stop co
 2478              		.loc 1 686 0
 2479 006a BB68     		ldr	r3, [r7, #8]
 2480 006c DBB2     		uxtb	r3, r3
 2481 006e 3A68     		ldr	r2, [r7]
 2482 0070 D2B2     		uxtb	r2, r2
 2483 0072 1946     		mov	r1, r3
 2484 0074 F868     		ldr	r0, [r7, #12]
 2485 0076 FFF7FEFF 		bl	SetColumnAddress
 687:oled.c        ****     
 688:oled.c        ****     oled->SendStart(oled->slaveAddr, 0x00);             // generate Start condition and send slave 
 2486              		.loc 1 688 0
 2487 007a FB68     		ldr	r3, [r7, #12]
 2488 007c 5B68     		ldr	r3, [r3, #4]
 2489 007e FA68     		ldr	r2, [r7, #12]
ARM GAS  C:\Users\seanj\AppData\Local\Temp\ccw9gLN6.s 			page 57


 2490 0080 1278     		ldrb	r2, [r2]	@ zero_extendqisi2
 2491 0082 0021     		movs	r1, #0
 2492 0084 1046     		mov	r0, r2
 2493 0086 9847     		blx	r3
 689:oled.c        ****     oled->WriteByte(0x40);                              // send "GRAM write" control byte
 2494              		.loc 1 689 0
 2495 0088 FB68     		ldr	r3, [r7, #12]
 2496 008a DB68     		ldr	r3, [r3, #12]
 2497 008c 4020     		movs	r0, #64
 2498 008e 9847     		blx	r3
 2499              	.LBB5:
 690:oled.c        ****     
 691:oled.c        ****     uint8 mask;
 692:oled.c        ****     for (int i=y0/8; i<=y1/8; i++){                     // iterate over pages that will be modified
 2500              		.loc 1 692 0
 2501 0090 7B68     		ldr	r3, [r7, #4]
 2502 0092 002B     		cmp	r3, #0
 2503 0094 00DA     		bge	.L127
 2504 0096 0733     		adds	r3, r3, #7
 2505              	.L127:
 2506 0098 DB10     		asrs	r3, r3, #3
 2507 009a BB61     		str	r3, [r7, #24]
 2508 009c 7EE0     		b	.L128
 2509              	.L140:
 693:oled.c        ****         mask = 0x00;                                    // create a bit mask to preserve pixels tha
 2510              		.loc 1 693 0
 2511 009e 0023     		movs	r3, #0
 2512 00a0 FB77     		strb	r3, [r7, #31]
 694:oled.c        ****         if (i == y0/8){                                               
 2513              		.loc 1 694 0
 2514 00a2 7B68     		ldr	r3, [r7, #4]
 2515 00a4 002B     		cmp	r3, #0
 2516 00a6 00DA     		bge	.L129
 2517 00a8 0733     		adds	r3, r3, #7
 2518              	.L129:
 2519 00aa DB10     		asrs	r3, r3, #3
 2520 00ac 1A46     		mov	r2, r3
 2521 00ae BB69     		ldr	r3, [r7, #24]
 2522 00b0 9A42     		cmp	r2, r3
 2523 00b2 0ED1     		bne	.L130
 695:oled.c        ****             mask = 0xFF >> (8 - y0%8);
 2524              		.loc 1 695 0
 2525 00b4 7A68     		ldr	r2, [r7, #4]
 2526 00b6 434B     		ldr	r3, .L143
 2527 00b8 1340     		ands	r3, r3, r2
 2528 00ba 002B     		cmp	r3, #0
 2529 00bc 03DA     		bge	.L131
 2530 00be 013B     		subs	r3, r3, #1
 2531 00c0 63F00703 		orn	r3, r3, #7
 2532 00c4 0133     		adds	r3, r3, #1
 2533              	.L131:
 2534 00c6 C3F10803 		rsb	r3, r3, #8
 2535 00ca FF22     		movs	r2, #255
 2536 00cc 42FA03F3 		asr	r3, r2, r3
 2537 00d0 FB77     		strb	r3, [r7, #31]
 2538              	.L130:
 696:oled.c        ****         }
ARM GAS  C:\Users\seanj\AppData\Local\Temp\ccw9gLN6.s 			page 58


 697:oled.c        ****         if (i == y1/8){
 2539              		.loc 1 697 0
 2540 00d2 BB6A     		ldr	r3, [r7, #40]
 2541 00d4 002B     		cmp	r3, #0
 2542 00d6 00DA     		bge	.L132
 2543 00d8 0733     		adds	r3, r3, #7
 2544              	.L132:
 2545 00da DB10     		asrs	r3, r3, #3
 2546 00dc 1A46     		mov	r2, r3
 2547 00de BB69     		ldr	r3, [r7, #24]
 2548 00e0 9A42     		cmp	r2, r3
 2549 00e2 12D1     		bne	.L133
 698:oled.c        ****             mask = mask | (0xFF << (1 + y1%8));
 2550              		.loc 1 698 0
 2551 00e4 BA6A     		ldr	r2, [r7, #40]
 2552 00e6 374B     		ldr	r3, .L143
 2553 00e8 1340     		ands	r3, r3, r2
 2554 00ea 002B     		cmp	r3, #0
 2555 00ec 03DA     		bge	.L134
 2556 00ee 013B     		subs	r3, r3, #1
 2557 00f0 63F00703 		orn	r3, r3, #7
 2558 00f4 0133     		adds	r3, r3, #1
 2559              	.L134:
 2560 00f6 0133     		adds	r3, r3, #1
 2561 00f8 FF22     		movs	r2, #255
 2562 00fa 02FA03F3 		lsl	r3, r2, r3
 2563 00fe 5AB2     		sxtb	r2, r3
 2564 0100 97F91F30 		ldrsb	r3, [r7, #31]
 2565 0104 1343     		orrs	r3, r3, r2
 2566 0106 5BB2     		sxtb	r3, r3
 2567 0108 FB77     		strb	r3, [r7, #31]
 2568              	.L133:
 2569              	.LBB6:
 699:oled.c        ****         }
 700:oled.c        ****         for (int j=x0; j<=x1; j++){                                                             // 
 2570              		.loc 1 700 0
 2571 010a BB68     		ldr	r3, [r7, #8]
 2572 010c 7B61     		str	r3, [r7, #20]
 2573 010e 3EE0     		b	.L135
 2574              	.L138:
 701:oled.c        ****             if (color == 0){
 2575              		.loc 1 701 0
 2576 0110 97F82C30 		ldrb	r3, [r7, #44]	@ zero_extendqisi2
 2577 0114 002B     		cmp	r3, #0
 2578 0116 12D1     		bne	.L136
 702:oled.c        ****                 oled->GRAM[i*OLED_WIDTH + j] = oled->GRAM[i*OLED_WIDTH + j] & mask;             // 
 2579              		.loc 1 702 0
 2580 0118 BB69     		ldr	r3, [r7, #24]
 2581 011a DA01     		lsls	r2, r3, #7
 2582 011c 7B69     		ldr	r3, [r7, #20]
 2583 011e 1344     		add	r3, r3, r2
 2584 0120 BA69     		ldr	r2, [r7, #24]
 2585 0122 D101     		lsls	r1, r2, #7
 2586 0124 7A69     		ldr	r2, [r7, #20]
 2587 0126 0A44     		add	r2, r2, r1
 2588 0128 F968     		ldr	r1, [r7, #12]
 2589 012a 0A44     		add	r2, r2, r1
ARM GAS  C:\Users\seanj\AppData\Local\Temp\ccw9gLN6.s 			page 59


 2590 012c 917E     		ldrb	r1, [r2, #26]	@ zero_extendqisi2
 2591 012e FA7F     		ldrb	r2, [r7, #31]
 2592 0130 0A40     		ands	r2, r2, r1
 2593 0132 D1B2     		uxtb	r1, r2
 2594 0134 FA68     		ldr	r2, [r7, #12]
 2595 0136 1344     		add	r3, r3, r2
 2596 0138 0A46     		mov	r2, r1
 2597 013a 9A76     		strb	r2, [r3, #26]
 2598 013c 19E0     		b	.L137
 2599              	.L136:
 703:oled.c        ****             }
 704:oled.c        ****             else {
 705:oled.c        ****                 oled->GRAM[i*OLED_WIDTH + j] = ~mask | (oled->GRAM[i*OLED_WIDTH + j] & mask);   // 
 2600              		.loc 1 705 0
 2601 013e BB69     		ldr	r3, [r7, #24]
 2602 0140 DA01     		lsls	r2, r3, #7
 2603 0142 7B69     		ldr	r3, [r7, #20]
 2604 0144 1344     		add	r3, r3, r2
 2605 0146 97F91F20 		ldrsb	r2, [r7, #31]
 2606 014a D243     		mvns	r2, r2
 2607 014c 51B2     		sxtb	r1, r2
 2608 014e BA69     		ldr	r2, [r7, #24]
 2609 0150 D001     		lsls	r0, r2, #7
 2610 0152 7A69     		ldr	r2, [r7, #20]
 2611 0154 0244     		add	r2, r2, r0
 2612 0156 F868     		ldr	r0, [r7, #12]
 2613 0158 0244     		add	r2, r2, r0
 2614 015a 907E     		ldrb	r0, [r2, #26]	@ zero_extendqisi2
 2615 015c FA7F     		ldrb	r2, [r7, #31]
 2616 015e 0240     		ands	r2, r2, r0
 2617 0160 D2B2     		uxtb	r2, r2
 2618 0162 52B2     		sxtb	r2, r2
 2619 0164 0A43     		orrs	r2, r2, r1
 2620 0166 52B2     		sxtb	r2, r2
 2621 0168 D1B2     		uxtb	r1, r2
 2622 016a FA68     		ldr	r2, [r7, #12]
 2623 016c 1344     		add	r3, r3, r2
 2624 016e 0A46     		mov	r2, r1
 2625 0170 9A76     		strb	r2, [r3, #26]
 2626              	.L137:
 706:oled.c        ****             }
 707:oled.c        ****         oled->WriteByte(oled->GRAM[i*OLED_WIDTH + j]);                                          // 
 2627              		.loc 1 707 0 discriminator 2
 2628 0172 FB68     		ldr	r3, [r7, #12]
 2629 0174 DB68     		ldr	r3, [r3, #12]
 2630 0176 BA69     		ldr	r2, [r7, #24]
 2631 0178 D101     		lsls	r1, r2, #7
 2632 017a 7A69     		ldr	r2, [r7, #20]
 2633 017c 0A44     		add	r2, r2, r1
 2634 017e F968     		ldr	r1, [r7, #12]
 2635 0180 0A44     		add	r2, r2, r1
 2636 0182 927E     		ldrb	r2, [r2, #26]	@ zero_extendqisi2
 2637 0184 1046     		mov	r0, r2
 2638 0186 9847     		blx	r3
 700:oled.c        ****             if (color == 0){
 2639              		.loc 1 700 0 discriminator 2
 2640 0188 7B69     		ldr	r3, [r7, #20]
ARM GAS  C:\Users\seanj\AppData\Local\Temp\ccw9gLN6.s 			page 60


 2641 018a 0133     		adds	r3, r3, #1
 2642 018c 7B61     		str	r3, [r7, #20]
 2643              	.L135:
 700:oled.c        ****             if (color == 0){
 2644              		.loc 1 700 0 is_stmt 0 discriminator 1
 2645 018e 7A69     		ldr	r2, [r7, #20]
 2646 0190 3B68     		ldr	r3, [r7]
 2647 0192 9A42     		cmp	r2, r3
 2648 0194 BCDD     		ble	.L138
 2649              	.LBE6:
 692:oled.c        ****         mask = 0x00;                                    // create a bit mask to preserve pixels tha
 2650              		.loc 1 692 0 is_stmt 1 discriminator 2
 2651 0196 BB69     		ldr	r3, [r7, #24]
 2652 0198 0133     		adds	r3, r3, #1
 2653 019a BB61     		str	r3, [r7, #24]
 2654              	.L128:
 692:oled.c        ****         mask = 0x00;                                    // create a bit mask to preserve pixels tha
 2655              		.loc 1 692 0 is_stmt 0 discriminator 1
 2656 019c BB6A     		ldr	r3, [r7, #40]
 2657 019e 002B     		cmp	r3, #0
 2658 01a0 00DA     		bge	.L139
 2659 01a2 0733     		adds	r3, r3, #7
 2660              	.L139:
 2661 01a4 DB10     		asrs	r3, r3, #3
 2662 01a6 1A46     		mov	r2, r3
 2663 01a8 BB69     		ldr	r3, [r7, #24]
 2664 01aa 9A42     		cmp	r2, r3
 2665 01ac BFF677AF 		bge	.L140
 2666              	.LBE5:
 708:oled.c        ****         }
 709:oled.c        ****     }
 710:oled.c        ****     
 711:oled.c        ****     oled->SendStop();                                   // generate Stop condition
 2667              		.loc 1 711 0 is_stmt 1
 2668 01b0 FB68     		ldr	r3, [r7, #12]
 2669 01b2 9B68     		ldr	r3, [r3, #8]
 2670 01b4 9847     		blx	r3
 2671 01b6 02E0     		b	.L117
 2672              	.L141:
 680:oled.c        ****     if (y0 < 0) y0 = 0;
 2673              		.loc 1 680 0
 2674 01b8 00BF     		nop
 2675 01ba 00E0     		b	.L117
 2676              	.L142:
 683:oled.c        ****     
 2677              		.loc 1 683 0
 2678 01bc 00BF     		nop
 2679              	.L117:
 712:oled.c        **** }
 2680              		.loc 1 712 0
 2681 01be 2037     		adds	r7, r7, #32
 2682              		.cfi_def_cfa_offset 8
 2683 01c0 BD46     		mov	sp, r7
 2684              		.cfi_def_cfa_register 13
 2685              		@ sp needed
 2686 01c2 80BD     		pop	{r7, pc}
 2687              	.L144:
ARM GAS  C:\Users\seanj\AppData\Local\Temp\ccw9gLN6.s 			page 61


 2688              		.align	2
 2689              	.L143:
 2690 01c4 07000080 		.word	-2147483641
 2691              		.cfi_endproc
 2692              	.LFE93:
 2693              		.size	WriteGRAM, .-WriteGRAM
 2694              		.section	.text.DrawHLine,"ax",%progbits
 2695              		.align	2
 2696              		.global	DrawHLine
 2697              		.thumb
 2698              		.thumb_func
 2699              		.type	DrawHLine, %function
 2700              	DrawHLine:
 2701              	.LFB94:
 713:oled.c        **** 
 714:oled.c        **** //========================================
 715:oled.c        **** // DrawHLine()
 716:oled.c        **** // this functions draws a horizontal line
 717:oled.c        **** // between the points (x0, y) and (x1, y)
 718:oled.c        **** //
 719:oled.c        **** // Parameters:
 720:oled.c        **** //     oled - pointer to a oled_t structure
 721:oled.c        **** //     y - y-coordinate of line
 722:oled.c        **** //     x0 - x-coordinate of the first point
 723:oled.c        **** //     x1 - x-coordinate of the second point
 724:oled.c        **** //========================================
 725:oled.c        **** void DrawHLine(oled_t * oled, int y, int x0, int x1)
 726:oled.c        **** {
 2702              		.loc 1 726 0
 2703              		.cfi_startproc
 2704              		@ args = 0, pretend = 0, frame = 16
 2705              		@ frame_needed = 1, uses_anonymous_args = 0
 2706 0000 90B5     		push	{r4, r7, lr}
 2707              		.cfi_def_cfa_offset 12
 2708              		.cfi_offset 4, -12
 2709              		.cfi_offset 7, -8
 2710              		.cfi_offset 14, -4
 2711 0002 87B0     		sub	sp, sp, #28
 2712              		.cfi_def_cfa_offset 40
 2713 0004 02AF     		add	r7, sp, #8
 2714              		.cfi_def_cfa 7, 32
 2715 0006 F860     		str	r0, [r7, #12]
 2716 0008 B960     		str	r1, [r7, #8]
 2717 000a 7A60     		str	r2, [r7, #4]
 2718 000c 3B60     		str	r3, [r7]
 727:oled.c        ****     if (x0 <= x1) WriteGRAM(oled, x0-oled->penSize, y-oled->penSize, x1+oled->penSize, y+oled->penS
 2719              		.loc 1 727 0
 2720 000e 7A68     		ldr	r2, [r7, #4]
 2721 0010 3B68     		ldr	r3, [r7]
 2722 0012 9A42     		cmp	r2, r3
 2723 0014 1DDC     		bgt	.L146
 2724              		.loc 1 727 0 is_stmt 0 discriminator 1
 2725 0016 FB68     		ldr	r3, [r7, #12]
 2726 0018 9B7C     		ldrb	r3, [r3, #18]	@ zero_extendqisi2
 2727 001a 1A46     		mov	r2, r3
 2728 001c 7B68     		ldr	r3, [r7, #4]
 2729 001e 991A     		subs	r1, r3, r2
ARM GAS  C:\Users\seanj\AppData\Local\Temp\ccw9gLN6.s 			page 62


 2730 0020 FB68     		ldr	r3, [r7, #12]
 2731 0022 9B7C     		ldrb	r3, [r3, #18]	@ zero_extendqisi2
 2732 0024 1A46     		mov	r2, r3
 2733 0026 BB68     		ldr	r3, [r7, #8]
 2734 0028 981A     		subs	r0, r3, r2
 2735 002a FB68     		ldr	r3, [r7, #12]
 2736 002c 9B7C     		ldrb	r3, [r3, #18]	@ zero_extendqisi2
 2737 002e 1A46     		mov	r2, r3
 2738 0030 3B68     		ldr	r3, [r7]
 2739 0032 D418     		adds	r4, r2, r3
 2740 0034 FB68     		ldr	r3, [r7, #12]
 2741 0036 9B7C     		ldrb	r3, [r3, #18]	@ zero_extendqisi2
 2742 0038 1A46     		mov	r2, r3
 2743 003a BB68     		ldr	r3, [r7, #8]
 2744 003c 1344     		add	r3, r3, r2
 2745 003e FA68     		ldr	r2, [r7, #12]
 2746 0040 527C     		ldrb	r2, [r2, #17]	@ zero_extendqisi2
 2747 0042 0192     		str	r2, [sp, #4]
 2748 0044 0093     		str	r3, [sp]
 2749 0046 2346     		mov	r3, r4
 2750 0048 0246     		mov	r2, r0
 2751 004a F868     		ldr	r0, [r7, #12]
 2752 004c FFF7FEFF 		bl	WriteGRAM
 728:oled.c        ****     else WriteGRAM(oled, x1-oled->penSize, y-oled->penSize, x0+oled->penSize, y+oled->penSize, oled
 729:oled.c        **** }
 2753              		.loc 1 729 0 is_stmt 1 discriminator 1
 2754 0050 1CE0     		b	.L148
 2755              	.L146:
 728:oled.c        ****     else WriteGRAM(oled, x1-oled->penSize, y-oled->penSize, x0+oled->penSize, y+oled->penSize, oled
 2756              		.loc 1 728 0
 2757 0052 FB68     		ldr	r3, [r7, #12]
 2758 0054 9B7C     		ldrb	r3, [r3, #18]	@ zero_extendqisi2
 2759 0056 1A46     		mov	r2, r3
 2760 0058 3B68     		ldr	r3, [r7]
 2761 005a 991A     		subs	r1, r3, r2
 2762 005c FB68     		ldr	r3, [r7, #12]
 2763 005e 9B7C     		ldrb	r3, [r3, #18]	@ zero_extendqisi2
 2764 0060 1A46     		mov	r2, r3
 2765 0062 BB68     		ldr	r3, [r7, #8]
 2766 0064 981A     		subs	r0, r3, r2
 2767 0066 FB68     		ldr	r3, [r7, #12]
 2768 0068 9B7C     		ldrb	r3, [r3, #18]	@ zero_extendqisi2
 2769 006a 1A46     		mov	r2, r3
 2770 006c 7B68     		ldr	r3, [r7, #4]
 2771 006e D418     		adds	r4, r2, r3
 2772 0070 FB68     		ldr	r3, [r7, #12]
 2773 0072 9B7C     		ldrb	r3, [r3, #18]	@ zero_extendqisi2
 2774 0074 1A46     		mov	r2, r3
 2775 0076 BB68     		ldr	r3, [r7, #8]
 2776 0078 1344     		add	r3, r3, r2
 2777 007a FA68     		ldr	r2, [r7, #12]
 2778 007c 527C     		ldrb	r2, [r2, #17]	@ zero_extendqisi2
 2779 007e 0192     		str	r2, [sp, #4]
 2780 0080 0093     		str	r3, [sp]
 2781 0082 2346     		mov	r3, r4
 2782 0084 0246     		mov	r2, r0
 2783 0086 F868     		ldr	r0, [r7, #12]
ARM GAS  C:\Users\seanj\AppData\Local\Temp\ccw9gLN6.s 			page 63


 2784 0088 FFF7FEFF 		bl	WriteGRAM
 2785              	.L148:
 2786              		.loc 1 729 0
 2787 008c 00BF     		nop
 2788 008e 1437     		adds	r7, r7, #20
 2789              		.cfi_def_cfa_offset 12
 2790 0090 BD46     		mov	sp, r7
 2791              		.cfi_def_cfa_register 13
 2792              		@ sp needed
 2793 0092 90BD     		pop	{r4, r7, pc}
 2794              		.cfi_endproc
 2795              	.LFE94:
 2796              		.size	DrawHLine, .-DrawHLine
 2797              		.section	.text.DrawVLine,"ax",%progbits
 2798              		.align	2
 2799              		.global	DrawVLine
 2800              		.thumb
 2801              		.thumb_func
 2802              		.type	DrawVLine, %function
 2803              	DrawVLine:
 2804              	.LFB95:
 730:oled.c        **** 
 731:oled.c        **** //========================================
 732:oled.c        **** // DrawVLine()
 733:oled.c        **** // this functions draws a vertical line
 734:oled.c        **** // between the points (x, y0) and (x, y1)
 735:oled.c        **** //
 736:oled.c        **** // Parameters:
 737:oled.c        **** //     oled - pointer to a oled_t structure
 738:oled.c        **** //     x - x-coordinate of line
 739:oled.c        **** //     y0 - y-coordinate of the first point
 740:oled.c        **** //     y1 - y-coordinate of the second point
 741:oled.c        **** //========================================
 742:oled.c        **** void DrawVLine(oled_t * oled, int x, int y0, int y1)
 743:oled.c        **** {
 2805              		.loc 1 743 0
 2806              		.cfi_startproc
 2807              		@ args = 0, pretend = 0, frame = 16
 2808              		@ frame_needed = 1, uses_anonymous_args = 0
 2809 0000 90B5     		push	{r4, r7, lr}
 2810              		.cfi_def_cfa_offset 12
 2811              		.cfi_offset 4, -12
 2812              		.cfi_offset 7, -8
 2813              		.cfi_offset 14, -4
 2814 0002 87B0     		sub	sp, sp, #28
 2815              		.cfi_def_cfa_offset 40
 2816 0004 02AF     		add	r7, sp, #8
 2817              		.cfi_def_cfa 7, 32
 2818 0006 F860     		str	r0, [r7, #12]
 2819 0008 B960     		str	r1, [r7, #8]
 2820 000a 7A60     		str	r2, [r7, #4]
 2821 000c 3B60     		str	r3, [r7]
 744:oled.c        ****     if (y0 <= y1) WriteGRAM(oled, x-oled->penSize, y0-oled->penSize, x+oled->penSize, y1+oled->penS
 2822              		.loc 1 744 0
 2823 000e 7A68     		ldr	r2, [r7, #4]
 2824 0010 3B68     		ldr	r3, [r7]
 2825 0012 9A42     		cmp	r2, r3
ARM GAS  C:\Users\seanj\AppData\Local\Temp\ccw9gLN6.s 			page 64


 2826 0014 1DDC     		bgt	.L150
 2827              		.loc 1 744 0 is_stmt 0 discriminator 1
 2828 0016 FB68     		ldr	r3, [r7, #12]
 2829 0018 9B7C     		ldrb	r3, [r3, #18]	@ zero_extendqisi2
 2830 001a 1A46     		mov	r2, r3
 2831 001c BB68     		ldr	r3, [r7, #8]
 2832 001e 991A     		subs	r1, r3, r2
 2833 0020 FB68     		ldr	r3, [r7, #12]
 2834 0022 9B7C     		ldrb	r3, [r3, #18]	@ zero_extendqisi2
 2835 0024 1A46     		mov	r2, r3
 2836 0026 7B68     		ldr	r3, [r7, #4]
 2837 0028 981A     		subs	r0, r3, r2
 2838 002a FB68     		ldr	r3, [r7, #12]
 2839 002c 9B7C     		ldrb	r3, [r3, #18]	@ zero_extendqisi2
 2840 002e 1A46     		mov	r2, r3
 2841 0030 BB68     		ldr	r3, [r7, #8]
 2842 0032 D418     		adds	r4, r2, r3
 2843 0034 FB68     		ldr	r3, [r7, #12]
 2844 0036 9B7C     		ldrb	r3, [r3, #18]	@ zero_extendqisi2
 2845 0038 1A46     		mov	r2, r3
 2846 003a 3B68     		ldr	r3, [r7]
 2847 003c 1344     		add	r3, r3, r2
 2848 003e FA68     		ldr	r2, [r7, #12]
 2849 0040 527C     		ldrb	r2, [r2, #17]	@ zero_extendqisi2
 2850 0042 0192     		str	r2, [sp, #4]
 2851 0044 0093     		str	r3, [sp]
 2852 0046 2346     		mov	r3, r4
 2853 0048 0246     		mov	r2, r0
 2854 004a F868     		ldr	r0, [r7, #12]
 2855 004c FFF7FEFF 		bl	WriteGRAM
 745:oled.c        ****     else WriteGRAM(oled, x-oled->penSize, y1-oled->penSize, x+oled->penSize, y0+oled->penSize, oled
 746:oled.c        **** }
 2856              		.loc 1 746 0 is_stmt 1 discriminator 1
 2857 0050 1CE0     		b	.L152
 2858              	.L150:
 745:oled.c        ****     else WriteGRAM(oled, x-oled->penSize, y1-oled->penSize, x+oled->penSize, y0+oled->penSize, oled
 2859              		.loc 1 745 0
 2860 0052 FB68     		ldr	r3, [r7, #12]
 2861 0054 9B7C     		ldrb	r3, [r3, #18]	@ zero_extendqisi2
 2862 0056 1A46     		mov	r2, r3
 2863 0058 BB68     		ldr	r3, [r7, #8]
 2864 005a 991A     		subs	r1, r3, r2
 2865 005c FB68     		ldr	r3, [r7, #12]
 2866 005e 9B7C     		ldrb	r3, [r3, #18]	@ zero_extendqisi2
 2867 0060 1A46     		mov	r2, r3
 2868 0062 3B68     		ldr	r3, [r7]
 2869 0064 981A     		subs	r0, r3, r2
 2870 0066 FB68     		ldr	r3, [r7, #12]
 2871 0068 9B7C     		ldrb	r3, [r3, #18]	@ zero_extendqisi2
 2872 006a 1A46     		mov	r2, r3
 2873 006c BB68     		ldr	r3, [r7, #8]
 2874 006e D418     		adds	r4, r2, r3
 2875 0070 FB68     		ldr	r3, [r7, #12]
 2876 0072 9B7C     		ldrb	r3, [r3, #18]	@ zero_extendqisi2
 2877 0074 1A46     		mov	r2, r3
 2878 0076 7B68     		ldr	r3, [r7, #4]
 2879 0078 1344     		add	r3, r3, r2
ARM GAS  C:\Users\seanj\AppData\Local\Temp\ccw9gLN6.s 			page 65


 2880 007a FA68     		ldr	r2, [r7, #12]
 2881 007c 527C     		ldrb	r2, [r2, #17]	@ zero_extendqisi2
 2882 007e 0192     		str	r2, [sp, #4]
 2883 0080 0093     		str	r3, [sp]
 2884 0082 2346     		mov	r3, r4
 2885 0084 0246     		mov	r2, r0
 2886 0086 F868     		ldr	r0, [r7, #12]
 2887 0088 FFF7FEFF 		bl	WriteGRAM
 2888              	.L152:
 2889              		.loc 1 746 0
 2890 008c 00BF     		nop
 2891 008e 1437     		adds	r7, r7, #20
 2892              		.cfi_def_cfa_offset 12
 2893 0090 BD46     		mov	sp, r7
 2894              		.cfi_def_cfa_register 13
 2895              		@ sp needed
 2896 0092 90BD     		pop	{r4, r7, pc}
 2897              		.cfi_endproc
 2898              	.LFE95:
 2899              		.size	DrawVLine, .-DrawVLine
 2900              		.section	.text.BresenhamLineAlgorithm,"ax",%progbits
 2901              		.align	2
 2902              		.global	BresenhamLineAlgorithm
 2903              		.thumb
 2904              		.thumb_func
 2905              		.type	BresenhamLineAlgorithm, %function
 2906              	BresenhamLineAlgorithm:
 2907              	.LFB96:
 747:oled.c        **** 
 748:oled.c        **** //========================================
 749:oled.c        **** // BresenhamLineAlgorithm()
 750:oled.c        **** // this function uses Bresenham's line algorithm to
 751:oled.c        **** // draw a line between the points (x0, y0) and 
 752:oled.c        **** // (x0+dx, y0+dy). Bresenham's algorithm requires
 753:oled.c        **** // the slope of the line to be between 0 and 1, however
 754:oled.c        **** // the parameter rot allows the caller to specify 
 755:oled.c        **** // whether the line should be rotated when plotted 
 756:oled.c        **** // on the display
 757:oled.c        **** //
 758:oled.c        **** // Parameters:
 759:oled.c        **** //     oled - pointer to a oled_t structure
 760:oled.c        **** //     x0 - x-coordinate of the start of the line
 761:oled.c        **** //     y0 - y-coordinate of the start of the line
 762:oled.c        **** //     dx - length of the line in the x-direction
 763:oled.c        **** //     dy - length of the line in the y-direction
 764:oled.c        **** //     rot - desired rotation (integer in range 0-3)
 765:oled.c        **** //========================================
 766:oled.c        **** void BresenhamLineAlgorithm(oled_t * oled, int x0, int y0, int dx, int dy, uint8 rot)
 767:oled.c        **** {
 2908              		.loc 1 767 0
 2909              		.cfi_startproc
 2910              		@ args = 8, pretend = 0, frame = 40
 2911              		@ frame_needed = 1, uses_anonymous_args = 0
 2912 0000 80B5     		push	{r7, lr}
 2913              		.cfi_def_cfa_offset 8
 2914              		.cfi_offset 7, -8
 2915              		.cfi_offset 14, -4
ARM GAS  C:\Users\seanj\AppData\Local\Temp\ccw9gLN6.s 			page 66


 2916 0002 90B0     		sub	sp, sp, #64
 2917              		.cfi_def_cfa_offset 72
 2918 0004 06AF     		add	r7, sp, #24
 2919              		.cfi_def_cfa 7, 48
 2920 0006 F860     		str	r0, [r7, #12]
 2921 0008 B960     		str	r1, [r7, #8]
 2922 000a 7A60     		str	r2, [r7, #4]
 2923 000c 3B60     		str	r3, [r7]
 768:oled.c        ****     if ((dx < 0) || (dy < 0) || (dy > dx)) return;              // make sure the slope is between 0
 2924              		.loc 1 768 0
 2925 000e 3B68     		ldr	r3, [r7]
 2926 0010 002B     		cmp	r3, #0
 2927 0012 62DB     		blt	.L162
 2928              		.loc 1 768 0 is_stmt 0 discriminator 1
 2929 0014 3B6B     		ldr	r3, [r7, #48]
 2930 0016 002B     		cmp	r3, #0
 2931 0018 5FDB     		blt	.L162
 2932              		.loc 1 768 0 discriminator 2
 2933 001a 3A6B     		ldr	r2, [r7, #48]
 2934 001c 3B68     		ldr	r3, [r7]
 2935 001e 9A42     		cmp	r2, r3
 2936 0020 5BDC     		bgt	.L162
 769:oled.c        ****     
 770:oled.c        ****     int error = 0;                                              // initialize error to 0 
 2937              		.loc 1 770 0 is_stmt 1
 2938 0022 0023     		movs	r3, #0
 2939 0024 7B62     		str	r3, [r7, #36]
 771:oled.c        ****     int x = 0, y = 0;                                           // set x and y to 0 (start algorith
 2940              		.loc 1 771 0
 2941 0026 0023     		movs	r3, #0
 2942 0028 3B62     		str	r3, [r7, #32]
 2943 002a 0023     		movs	r3, #0
 2944 002c FB61     		str	r3, [r7, #28]
 772:oled.c        ****     int thresh = dx - 2*dy;                                     // decision threshold (increase y i
 2945              		.loc 1 772 0
 2946 002e 3B6B     		ldr	r3, [r7, #48]
 2947 0030 5B00     		lsls	r3, r3, #1
 2948 0032 3A68     		ldr	r2, [r7]
 2949 0034 D31A     		subs	r3, r2, r3
 2950 0036 7B61     		str	r3, [r7, #20]
 773:oled.c        ****     uint8 step = 0;                                             // this variable keeps track of whe
 2951              		.loc 1 773 0
 2952 0038 0023     		movs	r3, #0
 2953 003a FB76     		strb	r3, [r7, #27]
 774:oled.c        ****     
 775:oled.c        ****     for(; x<=dx; x++){                                          // iterate over  x coordinates
 2954              		.loc 1 775 0
 2955 003c 48E0     		b	.L157
 2956              	.L161:
 776:oled.c        ****         if ((x == 0) && (-2*dy + 2*dx > thresh)) step = 1;      // set step = 1 if a step would hav
 2957              		.loc 1 776 0
 2958 003e 3B6A     		ldr	r3, [r7, #32]
 2959 0040 002B     		cmp	r3, #0
 2960 0042 08D1     		bne	.L158
 2961              		.loc 1 776 0 is_stmt 0 discriminator 1
 2962 0044 3A68     		ldr	r2, [r7]
 2963 0046 3B6B     		ldr	r3, [r7, #48]
ARM GAS  C:\Users\seanj\AppData\Local\Temp\ccw9gLN6.s 			page 67


 2964 0048 D31A     		subs	r3, r2, r3
 2965 004a 5A00     		lsls	r2, r3, #1
 2966 004c 7B69     		ldr	r3, [r7, #20]
 2967 004e 9A42     		cmp	r2, r3
 2968 0050 01DD     		ble	.L158
 2969              		.loc 1 776 0 discriminator 2
 2970 0052 0123     		movs	r3, #1
 2971 0054 FB76     		strb	r3, [r7, #27]
 2972              	.L158:
 777:oled.c        ****         PlotPerpLineL(oled, x0, y0, dx, dy, x, y, step, rot);
 2973              		.loc 1 777 0 is_stmt 1
 2974 0056 FB7E     		ldrb	r3, [r7, #27]	@ zero_extendqisi2
 2975 0058 97F83420 		ldrb	r2, [r7, #52]	@ zero_extendqisi2
 2976 005c 0492     		str	r2, [sp, #16]
 2977 005e 0393     		str	r3, [sp, #12]
 2978 0060 FB69     		ldr	r3, [r7, #28]
 2979 0062 0293     		str	r3, [sp, #8]
 2980 0064 3B6A     		ldr	r3, [r7, #32]
 2981 0066 0193     		str	r3, [sp, #4]
 2982 0068 3B6B     		ldr	r3, [r7, #48]
 2983 006a 0093     		str	r3, [sp]
 2984 006c 3B68     		ldr	r3, [r7]
 2985 006e 7A68     		ldr	r2, [r7, #4]
 2986 0070 B968     		ldr	r1, [r7, #8]
 2987 0072 F868     		ldr	r0, [r7, #12]
 2988 0074 FFF7FEFF 		bl	PlotPerpLineL
 778:oled.c        ****         PlotPerpLineR(oled, x0, y0, dx, dy, x, y, step, rot);
 2989              		.loc 1 778 0
 2990 0078 FB7E     		ldrb	r3, [r7, #27]	@ zero_extendqisi2
 2991 007a 97F83420 		ldrb	r2, [r7, #52]	@ zero_extendqisi2
 2992 007e 0492     		str	r2, [sp, #16]
 2993 0080 0393     		str	r3, [sp, #12]
 2994 0082 FB69     		ldr	r3, [r7, #28]
 2995 0084 0293     		str	r3, [sp, #8]
 2996 0086 3B6A     		ldr	r3, [r7, #32]
 2997 0088 0193     		str	r3, [sp, #4]
 2998 008a 3B6B     		ldr	r3, [r7, #48]
 2999 008c 0093     		str	r3, [sp]
 3000 008e 3B68     		ldr	r3, [r7]
 3001 0090 7A68     		ldr	r2, [r7, #4]
 3002 0092 B968     		ldr	r1, [r7, #8]
 3003 0094 F868     		ldr	r0, [r7, #12]
 3004 0096 FFF7FEFF 		bl	PlotPerpLineR
 779:oled.c        ****         if (error > thresh){                                    // check decision threshold
 3005              		.loc 1 779 0
 3006 009a 7A6A     		ldr	r2, [r7, #36]
 3007 009c 7B69     		ldr	r3, [r7, #20]
 3008 009e 9A42     		cmp	r2, r3
 3009 00a0 0CDD     		ble	.L159
 780:oled.c        ****             y++;                                                // increment the y coordinate
 3010              		.loc 1 780 0
 3011 00a2 FB69     		ldr	r3, [r7, #28]
 3012 00a4 0133     		adds	r3, r3, #1
 3013 00a6 FB61     		str	r3, [r7, #28]
 781:oled.c        ****             error += 2*dy - 2*dx;                               // update the error
 3014              		.loc 1 781 0
 3015 00a8 3A6B     		ldr	r2, [r7, #48]
ARM GAS  C:\Users\seanj\AppData\Local\Temp\ccw9gLN6.s 			page 68


 3016 00aa 3B68     		ldr	r3, [r7]
 3017 00ac D31A     		subs	r3, r2, r3
 3018 00ae 5B00     		lsls	r3, r3, #1
 3019 00b0 7A6A     		ldr	r2, [r7, #36]
 3020 00b2 1344     		add	r3, r3, r2
 3021 00b4 7B62     		str	r3, [r7, #36]
 782:oled.c        ****             step = 1;                                           // step was made, so set step to 1
 3022              		.loc 1 782 0
 3023 00b6 0123     		movs	r3, #1
 3024 00b8 FB76     		strb	r3, [r7, #27]
 3025 00ba 06E0     		b	.L160
 3026              	.L159:
 783:oled.c        ****         }
 784:oled.c        ****         else {
 785:oled.c        ****             error += 2*dy;                                      // update the error
 3027              		.loc 1 785 0
 3028 00bc 3B6B     		ldr	r3, [r7, #48]
 3029 00be 5B00     		lsls	r3, r3, #1
 3030 00c0 7A6A     		ldr	r2, [r7, #36]
 3031 00c2 1344     		add	r3, r3, r2
 3032 00c4 7B62     		str	r3, [r7, #36]
 786:oled.c        ****             step = 0;                                           // step was not made, so set step t
 3033              		.loc 1 786 0
 3034 00c6 0023     		movs	r3, #0
 3035 00c8 FB76     		strb	r3, [r7, #27]
 3036              	.L160:
 775:oled.c        ****         if ((x == 0) && (-2*dy + 2*dx > thresh)) step = 1;      // set step = 1 if a step would hav
 3037              		.loc 1 775 0
 3038 00ca 3B6A     		ldr	r3, [r7, #32]
 3039 00cc 0133     		adds	r3, r3, #1
 3040 00ce 3B62     		str	r3, [r7, #32]
 3041              	.L157:
 775:oled.c        ****         if ((x == 0) && (-2*dy + 2*dx > thresh)) step = 1;      // set step = 1 if a step would hav
 3042              		.loc 1 775 0 is_stmt 0 discriminator 1
 3043 00d0 3A6A     		ldr	r2, [r7, #32]
 3044 00d2 3B68     		ldr	r3, [r7]
 3045 00d4 9A42     		cmp	r2, r3
 3046 00d6 B2DD     		ble	.L161
 3047 00d8 00E0     		b	.L153
 3048              	.L162:
 768:oled.c        ****     
 3049              		.loc 1 768 0 is_stmt 1
 3050 00da 00BF     		nop
 3051              	.L153:
 787:oled.c        ****         }
 788:oled.c        ****     }
 789:oled.c        **** }
 3052              		.loc 1 789 0
 3053 00dc 2837     		adds	r7, r7, #40
 3054              		.cfi_def_cfa_offset 8
 3055 00de BD46     		mov	sp, r7
 3056              		.cfi_def_cfa_register 13
 3057              		@ sp needed
 3058 00e0 80BD     		pop	{r7, pc}
 3059              		.cfi_endproc
 3060              	.LFE96:
 3061              		.size	BresenhamLineAlgorithm, .-BresenhamLineAlgorithm
ARM GAS  C:\Users\seanj\AppData\Local\Temp\ccw9gLN6.s 			page 69


 3062 00e2 00BF     		.section	.text.PlotPerpLineL,"ax",%progbits
 3063              		.align	2
 3064              		.global	PlotPerpLineL
 3065              		.thumb
 3066              		.thumb_func
 3067              		.type	PlotPerpLineL, %function
 3068              	PlotPerpLineL:
 3069              	.LFB97:
 790:oled.c        **** 
 791:oled.c        **** //========================================
 792:oled.c        **** // PlotPerpLineL()
 793:oled.c        **** // this function is a helper function for 
 794:oled.c        **** // BresenhamLineAlgorithm(). It uses a modified 
 795:oled.c        **** // version of Bresenham's line algorithm to add
 796:oled.c        **** // thickness to the line being drawn in BresenhamLineAlgorithm().
 797:oled.c        **** // It does this by plotting a perpendicular line
 798:oled.c        **** // to the left side of the line being drawn. The 
 799:oled.c        **** // starting point for this perpendicular line is
 800:oled.c        **** // the point (x0+x, y0+y)
 801:oled.c        **** //
 802:oled.c        **** // Parameters:
 803:oled.c        **** //     oled - pointer to a oled_t structure
 804:oled.c        **** //     x0 - x-coordinate of the start of the line
 805:oled.c        **** //     y0 - y-coordinate of the start of the line
 806:oled.c        **** //     dx - length of the line in the x-direction
 807:oled.c        **** //     dy - length of the line in the y-direction
 808:oled.c        **** //     x - x-coordinate offset for the starting point
 809:oled.c        **** //         of the perpendicular line
 810:oled.c        **** //     y - y-coordinate offset for the starting point
 811:oled.c        **** //         of the perpendicular line
 812:oled.c        **** //     step - binary value which indicates if the y 
 813:oled.c        **** //            offset was increment in the previous
 814:oled.c        **** //            iteration of Bresenham's algorithm     
 815:oled.c        **** //     rot - desired rotation (integer in range 0-3)
 816:oled.c        **** //
 817:oled.c        **** // Note: the "line" refered to in the parameter descriptions
 818:oled.c        **** // is used in reference to the line being drawn in
 819:oled.c        **** // BresenhamLineAlgorithm() unless stated otherwise
 820:oled.c        **** //========================================
 821:oled.c        **** void PlotPerpLineL(oled_t * oled, int x0, int y0, int dx, int dy, int x, int y, int step, uint8 rot
 822:oled.c        **** {
 3070              		.loc 1 822 0
 3071              		.cfi_startproc
 3072              		@ args = 20, pretend = 0, frame = 32
 3073              		@ frame_needed = 1, uses_anonymous_args = 0
 3074 0000 80B5     		push	{r7, lr}
 3075              		.cfi_def_cfa_offset 8
 3076              		.cfi_offset 7, -8
 3077              		.cfi_offset 14, -4
 3078 0002 8AB0     		sub	sp, sp, #40
 3079              		.cfi_def_cfa_offset 48
 3080 0004 02AF     		add	r7, sp, #8
 3081              		.cfi_def_cfa 7, 40
 3082 0006 F860     		str	r0, [r7, #12]
 3083 0008 B960     		str	r1, [r7, #8]
 3084 000a 7A60     		str	r2, [r7, #4]
 3085 000c 3B60     		str	r3, [r7]
ARM GAS  C:\Users\seanj\AppData\Local\Temp\ccw9gLN6.s 			page 70


 823:oled.c        ****     int error = 0;
 3086              		.loc 1 823 0
 3087 000e 0023     		movs	r3, #0
 3088 0010 FB61     		str	r3, [r7, #28]
 824:oled.c        ****     int thresh = dx - 2*dy;             // decision threshold (decrease x if error becomes greater 
 3089              		.loc 1 824 0
 3090 0012 BB6A     		ldr	r3, [r7, #40]
 3091 0014 5B00     		lsls	r3, r3, #1
 3092 0016 3A68     		ldr	r2, [r7]
 3093 0018 D31A     		subs	r3, r2, r3
 3094 001a 7B61     		str	r3, [r7, #20]
 3095              	.LBB7:
 825:oled.c        ****     
 826:oled.c        ****     for (int i=0; i<oled->penSize+1; i++){
 3096              		.loc 1 826 0
 3097 001c 0023     		movs	r3, #0
 3098 001e BB61     		str	r3, [r7, #24]
 3099 0020 38E0     		b	.L164
 3100              	.L168:
 827:oled.c        ****         PlotPoint(oled, x0, y0, x, y, rot); // plot pixel
 3101              		.loc 1 827 0
 3102 0022 97F83830 		ldrb	r3, [r7, #56]	@ zero_extendqisi2
 3103 0026 0193     		str	r3, [sp, #4]
 3104 0028 3B6B     		ldr	r3, [r7, #48]
 3105 002a 0093     		str	r3, [sp]
 3106 002c FB6A     		ldr	r3, [r7, #44]
 3107 002e 7A68     		ldr	r2, [r7, #4]
 3108 0030 B968     		ldr	r1, [r7, #8]
 3109 0032 F868     		ldr	r0, [r7, #12]
 3110 0034 FFF7FEFF 		bl	PlotPoint
 828:oled.c        ****         if (error > thresh){            // check decision threshold
 3111              		.loc 1 828 0
 3112 0038 FA69     		ldr	r2, [r7, #28]
 3113 003a 7B69     		ldr	r3, [r7, #20]
 3114 003c 9A42     		cmp	r2, r3
 3115 003e 1EDD     		ble	.L165
 829:oled.c        ****             x--;                        // decrement the x coordinate
 3116              		.loc 1 829 0
 3117 0040 FB6A     		ldr	r3, [r7, #44]
 3118 0042 013B     		subs	r3, r3, #1
 3119 0044 FB62     		str	r3, [r7, #44]
 830:oled.c        ****             error += 2*dy - 2*dx;       // update the error
 3120              		.loc 1 830 0
 3121 0046 BA6A     		ldr	r2, [r7, #40]
 3122 0048 3B68     		ldr	r3, [r7]
 3123 004a D31A     		subs	r3, r2, r3
 3124 004c 5B00     		lsls	r3, r3, #1
 3125 004e FA69     		ldr	r2, [r7, #28]
 3126 0050 1344     		add	r3, r3, r2
 3127 0052 FB61     		str	r3, [r7, #28]
 831:oled.c        ****             if ((step == 1) && (i != oled->penSize)){
 3128              		.loc 1 831 0
 3129 0054 7B6B     		ldr	r3, [r7, #52]
 3130 0056 012B     		cmp	r3, #1
 3131 0058 16D1     		bne	.L167
 3132              		.loc 1 831 0 is_stmt 0 discriminator 1
 3133 005a FB68     		ldr	r3, [r7, #12]
ARM GAS  C:\Users\seanj\AppData\Local\Temp\ccw9gLN6.s 			page 71


 3134 005c 9B7C     		ldrb	r3, [r3, #18]	@ zero_extendqisi2
 3135 005e 1A46     		mov	r2, r3
 3136 0060 BB69     		ldr	r3, [r7, #24]
 3137 0062 9A42     		cmp	r2, r3
 3138 0064 10D0     		beq	.L167
 832:oled.c        ****                 PlotPoint(oled, x0, y0, x, y, rot);      // fill in "gap" pixel      
 3139              		.loc 1 832 0 is_stmt 1
 3140 0066 97F83830 		ldrb	r3, [r7, #56]	@ zero_extendqisi2
 3141 006a 0193     		str	r3, [sp, #4]
 3142 006c 3B6B     		ldr	r3, [r7, #48]
 3143 006e 0093     		str	r3, [sp]
 3144 0070 FB6A     		ldr	r3, [r7, #44]
 3145 0072 7A68     		ldr	r2, [r7, #4]
 3146 0074 B968     		ldr	r1, [r7, #8]
 3147 0076 F868     		ldr	r0, [r7, #12]
 3148 0078 FFF7FEFF 		bl	PlotPoint
 3149 007c 04E0     		b	.L167
 3150              	.L165:
 833:oled.c        ****             }
 834:oled.c        ****         }
 835:oled.c        ****         else {
 836:oled.c        ****             error += 2*dy;              // update the error   
 3151              		.loc 1 836 0
 3152 007e BB6A     		ldr	r3, [r7, #40]
 3153 0080 5B00     		lsls	r3, r3, #1
 3154 0082 FA69     		ldr	r2, [r7, #28]
 3155 0084 1344     		add	r3, r3, r2
 3156 0086 FB61     		str	r3, [r7, #28]
 3157              	.L167:
 837:oled.c        ****         }
 838:oled.c        ****         y++;                            // increment y on every itteratioon
 3158              		.loc 1 838 0 discriminator 2
 3159 0088 3B6B     		ldr	r3, [r7, #48]
 3160 008a 0133     		adds	r3, r3, #1
 3161 008c 3B63     		str	r3, [r7, #48]
 826:oled.c        ****         PlotPoint(oled, x0, y0, x, y, rot); // plot pixel
 3162              		.loc 1 826 0 discriminator 2
 3163 008e BB69     		ldr	r3, [r7, #24]
 3164 0090 0133     		adds	r3, r3, #1
 3165 0092 BB61     		str	r3, [r7, #24]
 3166              	.L164:
 826:oled.c        ****         PlotPoint(oled, x0, y0, x, y, rot); // plot pixel
 3167              		.loc 1 826 0 is_stmt 0 discriminator 1
 3168 0094 FB68     		ldr	r3, [r7, #12]
 3169 0096 9B7C     		ldrb	r3, [r3, #18]	@ zero_extendqisi2
 3170 0098 5A1C     		adds	r2, r3, #1
 3171 009a BB69     		ldr	r3, [r7, #24]
 3172 009c 9A42     		cmp	r2, r3
 3173 009e C0DC     		bgt	.L168
 3174              	.LBE7:
 839:oled.c        ****     }
 840:oled.c        **** }
 3175              		.loc 1 840 0 is_stmt 1
 3176 00a0 00BF     		nop
 3177 00a2 2037     		adds	r7, r7, #32
 3178              		.cfi_def_cfa_offset 8
 3179 00a4 BD46     		mov	sp, r7
ARM GAS  C:\Users\seanj\AppData\Local\Temp\ccw9gLN6.s 			page 72


 3180              		.cfi_def_cfa_register 13
 3181              		@ sp needed
 3182 00a6 80BD     		pop	{r7, pc}
 3183              		.cfi_endproc
 3184              	.LFE97:
 3185              		.size	PlotPerpLineL, .-PlotPerpLineL
 3186              		.section	.text.PlotPerpLineR,"ax",%progbits
 3187              		.align	2
 3188              		.global	PlotPerpLineR
 3189              		.thumb
 3190              		.thumb_func
 3191              		.type	PlotPerpLineR, %function
 3192              	PlotPerpLineR:
 3193              	.LFB98:
 841:oled.c        **** 
 842:oled.c        **** //========================================
 843:oled.c        **** // PlotPerpLineR()
 844:oled.c        **** // this function is a helper function for 
 845:oled.c        **** // BresenhamLineAlgorithm(). It uses a modified 
 846:oled.c        **** // version of Bresenham's line algorithm to add
 847:oled.c        **** // thickness to the line being drawn in BresenhamLineAlgorithm().
 848:oled.c        **** // It does this by plotting a perpendicular line
 849:oled.c        **** // to the right side of the line being drawn. The 
 850:oled.c        **** // starting point for this perpendicular line is
 851:oled.c        **** // the point (x0+x, y0+y)
 852:oled.c        **** //
 853:oled.c        **** // Parameters:
 854:oled.c        **** //     oled - pointer to a oled_t structure
 855:oled.c        **** //     x0 - x-coordinate of the start of the line
 856:oled.c        **** //     y0 - y-coordinate of the start of the line
 857:oled.c        **** //     dx - length of the line in the x-direction
 858:oled.c        **** //     dy - length of the line in the y-direction
 859:oled.c        **** //     x - x-coordinate offset for the starting point
 860:oled.c        **** //         of the perpendicular line
 861:oled.c        **** //     y - y-coordinate offset for the starting point
 862:oled.c        **** //         of the perpendicular line
 863:oled.c        **** //     step - binary value which indicates if the y 
 864:oled.c        **** //            offset was increment in the previous
 865:oled.c        **** //            iteration of Bresenham's algorithm     
 866:oled.c        **** //     rot - desired rotation (integer in range 0-3)
 867:oled.c        **** //
 868:oled.c        **** // Note: the "line" refered to in the parameter descriptions
 869:oled.c        **** // is used in reference to the line being drawn in
 870:oled.c        **** // BresenhamLineAlgorithm() unless stated otherwise
 871:oled.c        **** //========================================
 872:oled.c        **** void PlotPerpLineR(oled_t * oled, int x0, int y0, int dx, int dy, int x, int y, int step, uint8 rot
 873:oled.c        **** {
 3194              		.loc 1 873 0
 3195              		.cfi_startproc
 3196              		@ args = 20, pretend = 0, frame = 32
 3197              		@ frame_needed = 1, uses_anonymous_args = 0
 3198 0000 80B5     		push	{r7, lr}
 3199              		.cfi_def_cfa_offset 8
 3200              		.cfi_offset 7, -8
 3201              		.cfi_offset 14, -4
 3202 0002 8AB0     		sub	sp, sp, #40
 3203              		.cfi_def_cfa_offset 48
ARM GAS  C:\Users\seanj\AppData\Local\Temp\ccw9gLN6.s 			page 73


 3204 0004 02AF     		add	r7, sp, #8
 3205              		.cfi_def_cfa 7, 40
 3206 0006 F860     		str	r0, [r7, #12]
 3207 0008 B960     		str	r1, [r7, #8]
 3208 000a 7A60     		str	r2, [r7, #4]
 3209 000c 3B60     		str	r3, [r7]
 874:oled.c        ****     int error = 0;
 3210              		.loc 1 874 0
 3211 000e 0023     		movs	r3, #0
 3212 0010 FB61     		str	r3, [r7, #28]
 875:oled.c        ****     int thresh = dx - 2*dy;             // decision threshold (increase x if error becomes greater 
 3213              		.loc 1 875 0
 3214 0012 BB6A     		ldr	r3, [r7, #40]
 3215 0014 5B00     		lsls	r3, r3, #1
 3216 0016 3A68     		ldr	r2, [r7]
 3217 0018 D31A     		subs	r3, r2, r3
 3218 001a 7B61     		str	r3, [r7, #20]
 3219              	.LBB8:
 876:oled.c        ****     
 877:oled.c        ****     for (int i=0; i<oled->penSize+1; i++){
 3220              		.loc 1 877 0
 3221 001c 0023     		movs	r3, #0
 3222 001e BB61     		str	r3, [r7, #24]
 3223 0020 3EE0     		b	.L170
 3224              	.L175:
 878:oled.c        ****         if (i != 0) PlotPoint(oled, x0, y0, x, y, rot);     // plot pixel (don't plot the first pix
 3225              		.loc 1 878 0
 3226 0022 BB69     		ldr	r3, [r7, #24]
 3227 0024 002B     		cmp	r3, #0
 3228 0026 0AD0     		beq	.L171
 3229              		.loc 1 878 0 is_stmt 0 discriminator 1
 3230 0028 97F83830 		ldrb	r3, [r7, #56]	@ zero_extendqisi2
 3231 002c 0193     		str	r3, [sp, #4]
 3232 002e 3B6B     		ldr	r3, [r7, #48]
 3233 0030 0093     		str	r3, [sp]
 3234 0032 FB6A     		ldr	r3, [r7, #44]
 3235 0034 7A68     		ldr	r2, [r7, #4]
 3236 0036 B968     		ldr	r1, [r7, #8]
 3237 0038 F868     		ldr	r0, [r7, #12]
 3238 003a FFF7FEFF 		bl	PlotPoint
 3239              	.L171:
 879:oled.c        ****         if (error > thresh){            // check decision threshold
 3240              		.loc 1 879 0 is_stmt 1
 3241 003e FA69     		ldr	r2, [r7, #28]
 3242 0040 7B69     		ldr	r3, [r7, #20]
 3243 0042 9A42     		cmp	r2, r3
 3244 0044 21DD     		ble	.L172
 880:oled.c        ****             x++;                        // increment the x coordinate
 3245              		.loc 1 880 0
 3246 0046 FB6A     		ldr	r3, [r7, #44]
 3247 0048 0133     		adds	r3, r3, #1
 3248 004a FB62     		str	r3, [r7, #44]
 881:oled.c        ****             error += 2*dy - 2*dx;       // update the error
 3249              		.loc 1 881 0
 3250 004c BA6A     		ldr	r2, [r7, #40]
 3251 004e 3B68     		ldr	r3, [r7]
 3252 0050 D31A     		subs	r3, r2, r3
ARM GAS  C:\Users\seanj\AppData\Local\Temp\ccw9gLN6.s 			page 74


 3253 0052 5B00     		lsls	r3, r3, #1
 3254 0054 FA69     		ldr	r2, [r7, #28]
 3255 0056 1344     		add	r3, r3, r2
 3256 0058 FB61     		str	r3, [r7, #28]
 882:oled.c        ****             if ((step == 1) && (i != oled->penSize)){
 3257              		.loc 1 882 0
 3258 005a 7B6B     		ldr	r3, [r7, #52]
 3259 005c 012B     		cmp	r3, #1
 3260 005e 19D1     		bne	.L174
 3261              		.loc 1 882 0 is_stmt 0 discriminator 1
 3262 0060 FB68     		ldr	r3, [r7, #12]
 3263 0062 9B7C     		ldrb	r3, [r3, #18]	@ zero_extendqisi2
 3264 0064 1A46     		mov	r2, r3
 3265 0066 BB69     		ldr	r3, [r7, #24]
 3266 0068 9A42     		cmp	r2, r3
 3267 006a 13D0     		beq	.L174
 883:oled.c        ****                 PlotPoint(oled, x0, y0, x-1, y-1, rot);             // fill in "gap" pixel    
 3268              		.loc 1 883 0 is_stmt 1
 3269 006c FB6A     		ldr	r3, [r7, #44]
 3270 006e 591E     		subs	r1, r3, #1
 3271 0070 3B6B     		ldr	r3, [r7, #48]
 3272 0072 013B     		subs	r3, r3, #1
 3273 0074 97F83820 		ldrb	r2, [r7, #56]	@ zero_extendqisi2
 3274 0078 0192     		str	r2, [sp, #4]
 3275 007a 0093     		str	r3, [sp]
 3276 007c 0B46     		mov	r3, r1
 3277 007e 7A68     		ldr	r2, [r7, #4]
 3278 0080 B968     		ldr	r1, [r7, #8]
 3279 0082 F868     		ldr	r0, [r7, #12]
 3280 0084 FFF7FEFF 		bl	PlotPoint
 3281 0088 04E0     		b	.L174
 3282              	.L172:
 884:oled.c        ****             }
 885:oled.c        ****         }
 886:oled.c        ****         else {
 887:oled.c        ****             error += 2*dy;              // update the error   
 3283              		.loc 1 887 0
 3284 008a BB6A     		ldr	r3, [r7, #40]
 3285 008c 5B00     		lsls	r3, r3, #1
 3286 008e FA69     		ldr	r2, [r7, #28]
 3287 0090 1344     		add	r3, r3, r2
 3288 0092 FB61     		str	r3, [r7, #28]
 3289              	.L174:
 888:oled.c        ****         }
 889:oled.c        ****         y--;                            // decrement y on every itteratioon
 3290              		.loc 1 889 0 discriminator 2
 3291 0094 3B6B     		ldr	r3, [r7, #48]
 3292 0096 013B     		subs	r3, r3, #1
 3293 0098 3B63     		str	r3, [r7, #48]
 877:oled.c        ****         if (i != 0) PlotPoint(oled, x0, y0, x, y, rot);     // plot pixel (don't plot the first pix
 3294              		.loc 1 877 0 discriminator 2
 3295 009a BB69     		ldr	r3, [r7, #24]
 3296 009c 0133     		adds	r3, r3, #1
 3297 009e BB61     		str	r3, [r7, #24]
 3298              	.L170:
 877:oled.c        ****         if (i != 0) PlotPoint(oled, x0, y0, x, y, rot);     // plot pixel (don't plot the first pix
 3299              		.loc 1 877 0 is_stmt 0 discriminator 1
ARM GAS  C:\Users\seanj\AppData\Local\Temp\ccw9gLN6.s 			page 75


 3300 00a0 FB68     		ldr	r3, [r7, #12]
 3301 00a2 9B7C     		ldrb	r3, [r3, #18]	@ zero_extendqisi2
 3302 00a4 5A1C     		adds	r2, r3, #1
 3303 00a6 BB69     		ldr	r3, [r7, #24]
 3304 00a8 9A42     		cmp	r2, r3
 3305 00aa BADC     		bgt	.L175
 3306              	.LBE8:
 890:oled.c        ****     }
 891:oled.c        **** }
 3307              		.loc 1 891 0 is_stmt 1
 3308 00ac 00BF     		nop
 3309 00ae 2037     		adds	r7, r7, #32
 3310              		.cfi_def_cfa_offset 8
 3311 00b0 BD46     		mov	sp, r7
 3312              		.cfi_def_cfa_register 13
 3313              		@ sp needed
 3314 00b2 80BD     		pop	{r7, pc}
 3315              		.cfi_endproc
 3316              	.LFE98:
 3317              		.size	PlotPerpLineR, .-PlotPerpLineR
 3318              		.section	.text.PlotPoint,"ax",%progbits
 3319              		.align	2
 3320              		.global	PlotPoint
 3321              		.thumb
 3322              		.thumb_func
 3323              		.type	PlotPoint, %function
 3324              	PlotPoint:
 3325              	.LFB99:
 892:oled.c        **** 
 893:oled.c        **** //========================================
 894:oled.c        **** // PlotPoint()
 895:oled.c        **** // this function is a helper function for 
 896:oled.c        **** // PlotPerpLineL()/PlotPerpLineR(). It plots
 897:oled.c        **** // the points calculated by the line algorithms
 898:oled.c        **** // with the specified rotation (i.e the 
 899:oled.c        **** // transformation necesssary to draw lines
 900:oled.c        **** // with slopes less than 0 or greater than 1)
 901:oled.c        **** //
 902:oled.c        **** // Parameters:
 903:oled.c        **** //     oled - pointer to a oled_t structure
 904:oled.c        **** //     x0 - x-coordinate of the start of the line
 905:oled.c        **** //     y0 - y-coordinate of the start of the line
 906:oled.c        **** //     x - x-coordinate offset for the starting point
 907:oled.c        **** //         of the perpendicular line
 908:oled.c        **** //     y - y-coordinate offset for the starting point
 909:oled.c        **** //         of the perpendicular line    
 910:oled.c        **** //     rot - desired rotation (integer in range 0-3)
 911:oled.c        **** //
 912:oled.c        **** // Note: the "line" refered to in the parameter descriptions
 913:oled.c        **** // is used in reference to the line being drawn in
 914:oled.c        **** // BresenhamLineAlgorithm() unless stated otherwise
 915:oled.c        **** //========================================
 916:oled.c        **** void PlotPoint(oled_t * oled, int x0, int y0, int x, int y, uint8 rot)
 917:oled.c        **** {
 3326              		.loc 1 917 0
 3327              		.cfi_startproc
 3328              		@ args = 8, pretend = 0, frame = 16
ARM GAS  C:\Users\seanj\AppData\Local\Temp\ccw9gLN6.s 			page 76


 3329              		@ frame_needed = 1, uses_anonymous_args = 0
 3330 0000 80B5     		push	{r7, lr}
 3331              		.cfi_def_cfa_offset 8
 3332              		.cfi_offset 7, -8
 3333              		.cfi_offset 14, -4
 3334 0002 84B0     		sub	sp, sp, #16
 3335              		.cfi_def_cfa_offset 24
 3336 0004 00AF     		add	r7, sp, #0
 3337              		.cfi_def_cfa_register 7
 3338 0006 F860     		str	r0, [r7, #12]
 3339 0008 B960     		str	r1, [r7, #8]
 3340 000a 7A60     		str	r2, [r7, #4]
 3341 000c 3B60     		str	r3, [r7]
 918:oled.c        ****     if (rot == 0) oled_DrawPixel(oled, y0+y, x0+x);            // slope > 1
 3342              		.loc 1 918 0
 3343 000e 3B7F     		ldrb	r3, [r7, #28]	@ zero_extendqisi2
 3344 0010 002B     		cmp	r3, #0
 3345 0012 0AD1     		bne	.L177
 3346              		.loc 1 918 0 is_stmt 0 discriminator 1
 3347 0014 7A68     		ldr	r2, [r7, #4]
 3348 0016 BB69     		ldr	r3, [r7, #24]
 3349 0018 D118     		adds	r1, r2, r3
 3350 001a BA68     		ldr	r2, [r7, #8]
 3351 001c 3B68     		ldr	r3, [r7]
 3352 001e 1344     		add	r3, r3, r2
 3353 0020 1A46     		mov	r2, r3
 3354 0022 F868     		ldr	r0, [r7, #12]
 3355 0024 FFF7FEFF 		bl	oled_DrawPixel
 919:oled.c        ****     else if (rot == 1) oled_DrawPixel(oled, x0+x, y0+y);       // 0 <= slope <= 1
 920:oled.c        ****     else if (rot == 2) oled_DrawPixel(oled, x0+x, -y0-y);      // -1 <= slope < 0
 921:oled.c        ****     else if (rot == 3) oled_DrawPixel(oled, y0+y, -x0-x);      // slope < -1
 922:oled.c        **** }
 3356              		.loc 1 922 0 is_stmt 1 discriminator 1
 3357 0028 2AE0     		b	.L181
 3358              	.L177:
 919:oled.c        ****     else if (rot == 1) oled_DrawPixel(oled, x0+x, y0+y);       // 0 <= slope <= 1
 3359              		.loc 1 919 0
 3360 002a 3B7F     		ldrb	r3, [r7, #28]	@ zero_extendqisi2
 3361 002c 012B     		cmp	r3, #1
 3362 002e 0AD1     		bne	.L179
 919:oled.c        ****     else if (rot == 1) oled_DrawPixel(oled, x0+x, y0+y);       // 0 <= slope <= 1
 3363              		.loc 1 919 0 is_stmt 0 discriminator 1
 3364 0030 BA68     		ldr	r2, [r7, #8]
 3365 0032 3B68     		ldr	r3, [r7]
 3366 0034 D118     		adds	r1, r2, r3
 3367 0036 7A68     		ldr	r2, [r7, #4]
 3368 0038 BB69     		ldr	r3, [r7, #24]
 3369 003a 1344     		add	r3, r3, r2
 3370 003c 1A46     		mov	r2, r3
 3371 003e F868     		ldr	r0, [r7, #12]
 3372 0040 FFF7FEFF 		bl	oled_DrawPixel
 3373              		.loc 1 922 0 is_stmt 1 discriminator 1
 3374 0044 1CE0     		b	.L181
 3375              	.L179:
 920:oled.c        ****     else if (rot == 3) oled_DrawPixel(oled, y0+y, -x0-x);      // slope < -1
 3376              		.loc 1 920 0
 3377 0046 3B7F     		ldrb	r3, [r7, #28]	@ zero_extendqisi2
ARM GAS  C:\Users\seanj\AppData\Local\Temp\ccw9gLN6.s 			page 77


 3378 0048 022B     		cmp	r3, #2
 3379 004a 0BD1     		bne	.L180
 920:oled.c        ****     else if (rot == 3) oled_DrawPixel(oled, y0+y, -x0-x);      // slope < -1
 3380              		.loc 1 920 0 is_stmt 0 discriminator 1
 3381 004c BA68     		ldr	r2, [r7, #8]
 3382 004e 3B68     		ldr	r3, [r7]
 3383 0050 D118     		adds	r1, r2, r3
 3384 0052 7B68     		ldr	r3, [r7, #4]
 3385 0054 5A42     		negs	r2, r3
 3386 0056 BB69     		ldr	r3, [r7, #24]
 3387 0058 D31A     		subs	r3, r2, r3
 3388 005a 1A46     		mov	r2, r3
 3389 005c F868     		ldr	r0, [r7, #12]
 3390 005e FFF7FEFF 		bl	oled_DrawPixel
 3391              		.loc 1 922 0 is_stmt 1 discriminator 1
 3392 0062 0DE0     		b	.L181
 3393              	.L180:
 921:oled.c        **** }
 3394              		.loc 1 921 0
 3395 0064 3B7F     		ldrb	r3, [r7, #28]	@ zero_extendqisi2
 3396 0066 032B     		cmp	r3, #3
 3397 0068 0AD1     		bne	.L181
 921:oled.c        **** }
 3398              		.loc 1 921 0 is_stmt 0 discriminator 1
 3399 006a 7A68     		ldr	r2, [r7, #4]
 3400 006c BB69     		ldr	r3, [r7, #24]
 3401 006e D118     		adds	r1, r2, r3
 3402 0070 BB68     		ldr	r3, [r7, #8]
 3403 0072 5A42     		negs	r2, r3
 3404 0074 3B68     		ldr	r3, [r7]
 3405 0076 D31A     		subs	r3, r2, r3
 3406 0078 1A46     		mov	r2, r3
 3407 007a F868     		ldr	r0, [r7, #12]
 3408 007c FFF7FEFF 		bl	oled_DrawPixel
 3409              	.L181:
 3410              		.loc 1 922 0 is_stmt 1
 3411 0080 00BF     		nop
 3412 0082 1037     		adds	r7, r7, #16
 3413              		.cfi_def_cfa_offset 8
 3414 0084 BD46     		mov	sp, r7
 3415              		.cfi_def_cfa_register 13
 3416              		@ sp needed
 3417 0086 80BD     		pop	{r7, pc}
 3418              		.cfi_endproc
 3419              	.LFE99:
 3420              		.size	PlotPoint, .-PlotPoint
 3421              		.section	.text.BresenhamCircleAlgorithm,"ax",%progbits
 3422              		.align	2
 3423              		.global	BresenhamCircleAlgorithm
 3424              		.thumb
 3425              		.thumb_func
 3426              		.type	BresenhamCircleAlgorithm, %function
 3427              	BresenhamCircleAlgorithm:
 3428              	.LFB100:
 923:oled.c        **** 
 924:oled.c        **** //========================================
 925:oled.c        **** // BresenhamCircleAlgorithm()
ARM GAS  C:\Users\seanj\AppData\Local\Temp\ccw9gLN6.s 			page 78


 926:oled.c        **** // this function uses Bresenham's circle algorithm to
 927:oled.c        **** // draw a circle of radius r centered at (xc, yc). 
 928:oled.c        **** //
 929:oled.c        **** // Parameters:
 930:oled.c        **** //     oled - pointer to a oled_t structure
 931:oled.c        **** //     xc - x-coordinate of the center of the circle
 932:oled.c        **** //     yc - y-coordinate of the center of the circle
 933:oled.c        **** //     rIn - radius of circle
 934:oled.c        **** //     rOut - outer radius of circle
 935:oled.c        **** //     octants - 8-bit number: xxxx xxxx. Each bit
 936:oled.c        **** //               corresponds to an octant of the circle
 937:oled.c        **** //               and should be set to 1 if that octant
 938:oled.c        **** //               should be plotted (the LSB corresponds
 939:oled.c        **** //               to the octant 0)
 940:oled.c        **** //========================================
 941:oled.c        **** void BresenhamCircleAlgorithm(oled_t *oled, int xc, int yc, int rIn, int rOut, uint8 octants)
 942:oled.c        **** {
 3429              		.loc 1 942 0
 3430              		.cfi_startproc
 3431              		@ args = 8, pretend = 0, frame = 40
 3432              		@ frame_needed = 1, uses_anonymous_args = 0
 3433 0000 80B5     		push	{r7, lr}
 3434              		.cfi_def_cfa_offset 8
 3435              		.cfi_offset 7, -8
 3436              		.cfi_offset 14, -4
 3437 0002 8EB0     		sub	sp, sp, #56
 3438              		.cfi_def_cfa_offset 64
 3439 0004 04AF     		add	r7, sp, #16
 3440              		.cfi_def_cfa 7, 48
 3441 0006 F860     		str	r0, [r7, #12]
 3442 0008 B960     		str	r1, [r7, #8]
 3443 000a 7A60     		str	r2, [r7, #4]
 3444 000c 3B60     		str	r3, [r7]
 943:oled.c        ****     if ((rIn > rOut) || (rOut == 0)) return;    // inner radius must be less than or equal to the o
 3445              		.loc 1 943 0
 3446 000e 3A68     		ldr	r2, [r7]
 3447 0010 3B6B     		ldr	r3, [r7, #48]
 3448 0012 9A42     		cmp	r2, r3
 3449 0014 5ADC     		bgt	.L194
 3450              		.loc 1 943 0 is_stmt 0 discriminator 1
 3451 0016 3B6B     		ldr	r3, [r7, #48]
 3452 0018 002B     		cmp	r3, #0
 3453 001a 57D0     		beq	.L194
 944:oled.c        ****     int dIn = 3 - 2*rIn;                        // initialize decision parameter for inner circle
 3454              		.loc 1 944 0 is_stmt 1
 3455 001c 3B68     		ldr	r3, [r7]
 3456 001e 5B00     		lsls	r3, r3, #1
 3457 0020 C3F10303 		rsb	r3, r3, #3
 3458 0024 7B62     		str	r3, [r7, #36]
 945:oled.c        ****     int dOut = 3 - 2*rOut;                      // initialize decision parameter for inner circle
 3459              		.loc 1 945 0
 3460 0026 3B6B     		ldr	r3, [r7, #48]
 3461 0028 5B00     		lsls	r3, r3, #1
 3462 002a C3F10303 		rsb	r3, r3, #3
 3463 002e 3B62     		str	r3, [r7, #32]
 946:oled.c        ****     int x = 0, yIn = rIn, yOut = rOut;          // initialize first point on the inner cicle to (0,
 3464              		.loc 1 946 0
ARM GAS  C:\Users\seanj\AppData\Local\Temp\ccw9gLN6.s 			page 79


 3465 0030 0023     		movs	r3, #0
 3466 0032 FB61     		str	r3, [r7, #28]
 3467 0034 3B68     		ldr	r3, [r7]
 3468 0036 BB61     		str	r3, [r7, #24]
 3469 0038 3B6B     		ldr	r3, [r7, #48]
 3470 003a 7B61     		str	r3, [r7, #20]
 947:oled.c        **** 
 948:oled.c        ****     while (yIn <= yOut){                        // itterate over x until x becomes larger than yIn
 3471              		.loc 1 948 0
 3472 003c 41E0     		b	.L186
 3473              	.L193:
 949:oled.c        ****         PlotCircle(oled, xc, yc, x, yIn, yOut, octants);
 3474              		.loc 1 949 0
 3475 003e 97F83430 		ldrb	r3, [r7, #52]	@ zero_extendqisi2
 3476 0042 0293     		str	r3, [sp, #8]
 3477 0044 7B69     		ldr	r3, [r7, #20]
 3478 0046 0193     		str	r3, [sp, #4]
 3479 0048 BB69     		ldr	r3, [r7, #24]
 3480 004a 0093     		str	r3, [sp]
 3481 004c FB69     		ldr	r3, [r7, #28]
 3482 004e 7A68     		ldr	r2, [r7, #4]
 3483 0050 B968     		ldr	r1, [r7, #8]
 3484 0052 F868     		ldr	r0, [r7, #12]
 3485 0054 FFF7FEFF 		bl	PlotCircle
 950:oled.c        ****         if (dOut < 0){                          // check outer circle desision parameter
 3486              		.loc 1 950 0
 3487 0058 3B6A     		ldr	r3, [r7, #32]
 3488 005a 002B     		cmp	r3, #0
 3489 005c 06DA     		bge	.L187
 951:oled.c        ****             dOut += 4*x + 6;                    // update outer circle desision parameter
 3490              		.loc 1 951 0
 3491 005e FB69     		ldr	r3, [r7, #28]
 3492 0060 9B00     		lsls	r3, r3, #2
 3493 0062 0633     		adds	r3, r3, #6
 3494 0064 3A6A     		ldr	r2, [r7, #32]
 3495 0066 1344     		add	r3, r3, r2
 3496 0068 3B62     		str	r3, [r7, #32]
 3497 006a 0AE0     		b	.L188
 3498              	.L187:
 952:oled.c        ****         }
 953:oled.c        ****         else {
 954:oled.c        ****             dOut += 4*(x - yOut) + 10;          // update outer circle desision parameter
 3499              		.loc 1 954 0
 3500 006c FA69     		ldr	r2, [r7, #28]
 3501 006e 7B69     		ldr	r3, [r7, #20]
 3502 0070 D31A     		subs	r3, r2, r3
 3503 0072 9B00     		lsls	r3, r3, #2
 3504 0074 0A33     		adds	r3, r3, #10
 3505 0076 3A6A     		ldr	r2, [r7, #32]
 3506 0078 1344     		add	r3, r3, r2
 3507 007a 3B62     		str	r3, [r7, #32]
 955:oled.c        ****             yOut--;                             // decrement yOut coordinate 
 3508              		.loc 1 955 0
 3509 007c 7B69     		ldr	r3, [r7, #20]
 3510 007e 013B     		subs	r3, r3, #1
 3511 0080 7B61     		str	r3, [r7, #20]
 3512              	.L188:
ARM GAS  C:\Users\seanj\AppData\Local\Temp\ccw9gLN6.s 			page 80


 956:oled.c        ****         }
 957:oled.c        ****         if (x < yIn){                          
 3513              		.loc 1 957 0
 3514 0082 FA69     		ldr	r2, [r7, #28]
 3515 0084 BB69     		ldr	r3, [r7, #24]
 3516 0086 9A42     		cmp	r2, r3
 3517 0088 15DA     		bge	.L189
 958:oled.c        ****             if (dIn < 0){                       // check inner circle desision parameter
 3518              		.loc 1 958 0
 3519 008a 7B6A     		ldr	r3, [r7, #36]
 3520 008c 002B     		cmp	r3, #0
 3521 008e 06DA     		bge	.L190
 959:oled.c        ****                 dIn += 4*x + 6;                 // update desision parameter
 3522              		.loc 1 959 0
 3523 0090 FB69     		ldr	r3, [r7, #28]
 3524 0092 9B00     		lsls	r3, r3, #2
 3525 0094 0633     		adds	r3, r3, #6
 3526 0096 7A6A     		ldr	r2, [r7, #36]
 3527 0098 1344     		add	r3, r3, r2
 3528 009a 7B62     		str	r3, [r7, #36]
 3529 009c 0EE0     		b	.L192
 3530              	.L190:
 960:oled.c        ****             }
 961:oled.c        ****             else {
 962:oled.c        ****                 dIn += 4*(x - yIn) + 10;        // update inner circle desision parameter
 3531              		.loc 1 962 0
 3532 009e FA69     		ldr	r2, [r7, #28]
 3533 00a0 BB69     		ldr	r3, [r7, #24]
 3534 00a2 D31A     		subs	r3, r2, r3
 3535 00a4 9B00     		lsls	r3, r3, #2
 3536 00a6 0A33     		adds	r3, r3, #10
 3537 00a8 7A6A     		ldr	r2, [r7, #36]
 3538 00aa 1344     		add	r3, r3, r2
 3539 00ac 7B62     		str	r3, [r7, #36]
 963:oled.c        ****                 yIn--;                          // decrement yIn coordinate
 3540              		.loc 1 963 0
 3541 00ae BB69     		ldr	r3, [r7, #24]
 3542 00b0 013B     		subs	r3, r3, #1
 3543 00b2 BB61     		str	r3, [r7, #24]
 3544 00b4 02E0     		b	.L192
 3545              	.L189:
 964:oled.c        ****             }
 965:oled.c        ****         }
 966:oled.c        ****         else yIn++;                             // once yIn = x, keep incrementing yIn so that yIn 
 3546              		.loc 1 966 0
 3547 00b6 BB69     		ldr	r3, [r7, #24]
 3548 00b8 0133     		adds	r3, r3, #1
 3549 00ba BB61     		str	r3, [r7, #24]
 3550              	.L192:
 967:oled.c        ****         x++;                                    // increment x on each iteration
 3551              		.loc 1 967 0
 3552 00bc FB69     		ldr	r3, [r7, #28]
 3553 00be 0133     		adds	r3, r3, #1
 3554 00c0 FB61     		str	r3, [r7, #28]
 3555              	.L186:
 948:oled.c        ****         PlotCircle(oled, xc, yc, x, yIn, yOut, octants);
 3556              		.loc 1 948 0
ARM GAS  C:\Users\seanj\AppData\Local\Temp\ccw9gLN6.s 			page 81


 3557 00c2 BA69     		ldr	r2, [r7, #24]
 3558 00c4 7B69     		ldr	r3, [r7, #20]
 3559 00c6 9A42     		cmp	r2, r3
 3560 00c8 B9DD     		ble	.L193
 3561 00ca 00E0     		b	.L182
 3562              	.L194:
 943:oled.c        ****     int dIn = 3 - 2*rIn;                        // initialize decision parameter for inner circle
 3563              		.loc 1 943 0
 3564 00cc 00BF     		nop
 3565              	.L182:
 968:oled.c        ****     }
 969:oled.c        **** }
 3566              		.loc 1 969 0
 3567 00ce 2837     		adds	r7, r7, #40
 3568              		.cfi_def_cfa_offset 8
 3569 00d0 BD46     		mov	sp, r7
 3570              		.cfi_def_cfa_register 13
 3571              		@ sp needed
 3572 00d2 80BD     		pop	{r7, pc}
 3573              		.cfi_endproc
 3574              	.LFE100:
 3575              		.size	BresenhamCircleAlgorithm, .-BresenhamCircleAlgorithm
 3576              		.section	.text.PlotCircle,"ax",%progbits
 3577              		.align	2
 3578              		.global	PlotCircle
 3579              		.thumb
 3580              		.thumb_func
 3581              		.type	PlotCircle, %function
 3582              	PlotCircle:
 3583              	.LFB101:
 970:oled.c        **** 
 971:oled.c        **** //========================================
 972:oled.c        **** // PlotCircle()
 973:oled.c        **** // this function is a helper function for
 974:oled.c        **** // BresenhamCircleAlgorithm(). It plots
 975:oled.c        **** // the points calculated by the circle algorithms
 976:oled.c        **** //
 977:oled.c        **** // Parameters:
 978:oled.c        **** //     oled - pointer to a oled_t structure
 979:oled.c        **** //     xc - x-coordinate of the center of the circle
 980:oled.c        **** //     yc - y-coordinate of the center of the circle
 981:oled.c        **** //     x - x-offset for the point (octant 1)
 982:oled.c        **** //     yIn - y-offset for the inner point (octant 1)
 983:oled.c        **** //     yOut - y-offset for the outer point (octant 1)
 984:oled.c        **** //     octants - 8-bit number: xxxx xxxx. Each bit
 985:oled.c        **** //               corresponds to an octant of the circle
 986:oled.c        **** //               and should be set to 1 if that octant
 987:oled.c        **** //               should be plotted (the LSB corresponds
 988:oled.c        **** //               to the fist octant)
 989:oled.c        **** //========================================
 990:oled.c        **** void PlotCircle(oled_t * oled, int xc, int yc, int x, int yIn, int yOut, uint8 octants){
 3584              		.loc 1 990 0
 3585              		.cfi_startproc
 3586              		@ args = 12, pretend = 0, frame = 16
 3587              		@ frame_needed = 1, uses_anonymous_args = 0
 3588 0000 90B5     		push	{r4, r7, lr}
 3589              		.cfi_def_cfa_offset 12
ARM GAS  C:\Users\seanj\AppData\Local\Temp\ccw9gLN6.s 			page 82


 3590              		.cfi_offset 4, -12
 3591              		.cfi_offset 7, -8
 3592              		.cfi_offset 14, -4
 3593 0002 87B0     		sub	sp, sp, #28
 3594              		.cfi_def_cfa_offset 40
 3595 0004 02AF     		add	r7, sp, #8
 3596              		.cfi_def_cfa 7, 32
 3597 0006 F860     		str	r0, [r7, #12]
 3598 0008 B960     		str	r1, [r7, #8]
 3599 000a 7A60     		str	r2, [r7, #4]
 3600 000c 3B60     		str	r3, [r7]
 991:oled.c        ****     if (octants & 0x01) WriteGRAM(oled, xc+yIn, yc+x, xc+yOut, yc+x, oled->color);    // plot octan
 3601              		.loc 1 991 0
 3602 000e 97F82830 		ldrb	r3, [r7, #40]	@ zero_extendqisi2
 3603 0012 03F00103 		and	r3, r3, #1
 3604 0016 002B     		cmp	r3, #0
 3605 0018 14D0     		beq	.L196
 3606              		.loc 1 991 0 is_stmt 0 discriminator 1
 3607 001a BA68     		ldr	r2, [r7, #8]
 3608 001c 3B6A     		ldr	r3, [r7, #32]
 3609 001e D118     		adds	r1, r2, r3
 3610 0020 7A68     		ldr	r2, [r7, #4]
 3611 0022 3B68     		ldr	r3, [r7]
 3612 0024 D018     		adds	r0, r2, r3
 3613 0026 BA68     		ldr	r2, [r7, #8]
 3614 0028 7B6A     		ldr	r3, [r7, #36]
 3615 002a D418     		adds	r4, r2, r3
 3616 002c 7A68     		ldr	r2, [r7, #4]
 3617 002e 3B68     		ldr	r3, [r7]
 3618 0030 1344     		add	r3, r3, r2
 3619 0032 FA68     		ldr	r2, [r7, #12]
 3620 0034 527C     		ldrb	r2, [r2, #17]	@ zero_extendqisi2
 3621 0036 0192     		str	r2, [sp, #4]
 3622 0038 0093     		str	r3, [sp]
 3623 003a 2346     		mov	r3, r4
 3624 003c 0246     		mov	r2, r0
 3625 003e F868     		ldr	r0, [r7, #12]
 3626 0040 FFF7FEFF 		bl	WriteGRAM
 3627              	.L196:
 992:oled.c        ****     if (octants & 0x02) WriteGRAM(oled, xc+x, yc+yIn, xc+x, yc+yOut, oled->color);    // plot octan
 3628              		.loc 1 992 0 is_stmt 1
 3629 0044 97F82830 		ldrb	r3, [r7, #40]	@ zero_extendqisi2
 3630 0048 03F00203 		and	r3, r3, #2
 3631 004c 002B     		cmp	r3, #0
 3632 004e 14D0     		beq	.L197
 3633              		.loc 1 992 0 is_stmt 0 discriminator 1
 3634 0050 BA68     		ldr	r2, [r7, #8]
 3635 0052 3B68     		ldr	r3, [r7]
 3636 0054 D118     		adds	r1, r2, r3
 3637 0056 7A68     		ldr	r2, [r7, #4]
 3638 0058 3B6A     		ldr	r3, [r7, #32]
 3639 005a D018     		adds	r0, r2, r3
 3640 005c BA68     		ldr	r2, [r7, #8]
 3641 005e 3B68     		ldr	r3, [r7]
 3642 0060 D418     		adds	r4, r2, r3
 3643 0062 7A68     		ldr	r2, [r7, #4]
 3644 0064 7B6A     		ldr	r3, [r7, #36]
ARM GAS  C:\Users\seanj\AppData\Local\Temp\ccw9gLN6.s 			page 83


 3645 0066 1344     		add	r3, r3, r2
 3646 0068 FA68     		ldr	r2, [r7, #12]
 3647 006a 527C     		ldrb	r2, [r2, #17]	@ zero_extendqisi2
 3648 006c 0192     		str	r2, [sp, #4]
 3649 006e 0093     		str	r3, [sp]
 3650 0070 2346     		mov	r3, r4
 3651 0072 0246     		mov	r2, r0
 3652 0074 F868     		ldr	r0, [r7, #12]
 3653 0076 FFF7FEFF 		bl	WriteGRAM
 3654              	.L197:
 993:oled.c        ****     if (octants & 0x04) WriteGRAM(oled, xc-x, yc+yIn, xc-x, yc+yOut, oled->color);    // plot octan
 3655              		.loc 1 993 0 is_stmt 1
 3656 007a 97F82830 		ldrb	r3, [r7, #40]	@ zero_extendqisi2
 3657 007e 03F00403 		and	r3, r3, #4
 3658 0082 002B     		cmp	r3, #0
 3659 0084 14D0     		beq	.L198
 3660              		.loc 1 993 0 is_stmt 0 discriminator 1
 3661 0086 BA68     		ldr	r2, [r7, #8]
 3662 0088 3B68     		ldr	r3, [r7]
 3663 008a D11A     		subs	r1, r2, r3
 3664 008c 7A68     		ldr	r2, [r7, #4]
 3665 008e 3B6A     		ldr	r3, [r7, #32]
 3666 0090 D018     		adds	r0, r2, r3
 3667 0092 BA68     		ldr	r2, [r7, #8]
 3668 0094 3B68     		ldr	r3, [r7]
 3669 0096 D41A     		subs	r4, r2, r3
 3670 0098 7A68     		ldr	r2, [r7, #4]
 3671 009a 7B6A     		ldr	r3, [r7, #36]
 3672 009c 1344     		add	r3, r3, r2
 3673 009e FA68     		ldr	r2, [r7, #12]
 3674 00a0 527C     		ldrb	r2, [r2, #17]	@ zero_extendqisi2
 3675 00a2 0192     		str	r2, [sp, #4]
 3676 00a4 0093     		str	r3, [sp]
 3677 00a6 2346     		mov	r3, r4
 3678 00a8 0246     		mov	r2, r0
 3679 00aa F868     		ldr	r0, [r7, #12]
 3680 00ac FFF7FEFF 		bl	WriteGRAM
 3681              	.L198:
 994:oled.c        ****     if (octants & 0x08) WriteGRAM(oled, xc-yOut, yc+x, xc-yIn, yc+x, oled->color);    // plot octan
 3682              		.loc 1 994 0 is_stmt 1
 3683 00b0 97F82830 		ldrb	r3, [r7, #40]	@ zero_extendqisi2
 3684 00b4 03F00803 		and	r3, r3, #8
 3685 00b8 002B     		cmp	r3, #0
 3686 00ba 14D0     		beq	.L199
 3687              		.loc 1 994 0 is_stmt 0 discriminator 1
 3688 00bc BA68     		ldr	r2, [r7, #8]
 3689 00be 7B6A     		ldr	r3, [r7, #36]
 3690 00c0 D11A     		subs	r1, r2, r3
 3691 00c2 7A68     		ldr	r2, [r7, #4]
 3692 00c4 3B68     		ldr	r3, [r7]
 3693 00c6 D018     		adds	r0, r2, r3
 3694 00c8 BA68     		ldr	r2, [r7, #8]
 3695 00ca 3B6A     		ldr	r3, [r7, #32]
 3696 00cc D41A     		subs	r4, r2, r3
 3697 00ce 7A68     		ldr	r2, [r7, #4]
 3698 00d0 3B68     		ldr	r3, [r7]
 3699 00d2 1344     		add	r3, r3, r2
ARM GAS  C:\Users\seanj\AppData\Local\Temp\ccw9gLN6.s 			page 84


 3700 00d4 FA68     		ldr	r2, [r7, #12]
 3701 00d6 527C     		ldrb	r2, [r2, #17]	@ zero_extendqisi2
 3702 00d8 0192     		str	r2, [sp, #4]
 3703 00da 0093     		str	r3, [sp]
 3704 00dc 2346     		mov	r3, r4
 3705 00de 0246     		mov	r2, r0
 3706 00e0 F868     		ldr	r0, [r7, #12]
 3707 00e2 FFF7FEFF 		bl	WriteGRAM
 3708              	.L199:
 995:oled.c        ****     if (octants & 0x10) WriteGRAM(oled, xc-yOut, yc-x, xc-yIn, yc-x, oled->color);    // plot octan
 3709              		.loc 1 995 0 is_stmt 1
 3710 00e6 97F82830 		ldrb	r3, [r7, #40]	@ zero_extendqisi2
 3711 00ea 03F01003 		and	r3, r3, #16
 3712 00ee 002B     		cmp	r3, #0
 3713 00f0 14D0     		beq	.L200
 3714              		.loc 1 995 0 is_stmt 0 discriminator 1
 3715 00f2 BA68     		ldr	r2, [r7, #8]
 3716 00f4 7B6A     		ldr	r3, [r7, #36]
 3717 00f6 D11A     		subs	r1, r2, r3
 3718 00f8 7A68     		ldr	r2, [r7, #4]
 3719 00fa 3B68     		ldr	r3, [r7]
 3720 00fc D01A     		subs	r0, r2, r3
 3721 00fe BA68     		ldr	r2, [r7, #8]
 3722 0100 3B6A     		ldr	r3, [r7, #32]
 3723 0102 D41A     		subs	r4, r2, r3
 3724 0104 7A68     		ldr	r2, [r7, #4]
 3725 0106 3B68     		ldr	r3, [r7]
 3726 0108 D31A     		subs	r3, r2, r3
 3727 010a FA68     		ldr	r2, [r7, #12]
 3728 010c 527C     		ldrb	r2, [r2, #17]	@ zero_extendqisi2
 3729 010e 0192     		str	r2, [sp, #4]
 3730 0110 0093     		str	r3, [sp]
 3731 0112 2346     		mov	r3, r4
 3732 0114 0246     		mov	r2, r0
 3733 0116 F868     		ldr	r0, [r7, #12]
 3734 0118 FFF7FEFF 		bl	WriteGRAM
 3735              	.L200:
 996:oled.c        ****     if (octants & 0x20) WriteGRAM(oled, xc-x, yc-yOut, xc-x, yc-yIn, oled->color);    // plot octan
 3736              		.loc 1 996 0 is_stmt 1
 3737 011c 97F82830 		ldrb	r3, [r7, #40]	@ zero_extendqisi2
 3738 0120 03F02003 		and	r3, r3, #32
 3739 0124 002B     		cmp	r3, #0
 3740 0126 14D0     		beq	.L201
 3741              		.loc 1 996 0 is_stmt 0 discriminator 1
 3742 0128 BA68     		ldr	r2, [r7, #8]
 3743 012a 3B68     		ldr	r3, [r7]
 3744 012c D11A     		subs	r1, r2, r3
 3745 012e 7A68     		ldr	r2, [r7, #4]
 3746 0130 7B6A     		ldr	r3, [r7, #36]
 3747 0132 D01A     		subs	r0, r2, r3
 3748 0134 BA68     		ldr	r2, [r7, #8]
 3749 0136 3B68     		ldr	r3, [r7]
 3750 0138 D41A     		subs	r4, r2, r3
 3751 013a 7A68     		ldr	r2, [r7, #4]
 3752 013c 3B6A     		ldr	r3, [r7, #32]
 3753 013e D31A     		subs	r3, r2, r3
 3754 0140 FA68     		ldr	r2, [r7, #12]
ARM GAS  C:\Users\seanj\AppData\Local\Temp\ccw9gLN6.s 			page 85


 3755 0142 527C     		ldrb	r2, [r2, #17]	@ zero_extendqisi2
 3756 0144 0192     		str	r2, [sp, #4]
 3757 0146 0093     		str	r3, [sp]
 3758 0148 2346     		mov	r3, r4
 3759 014a 0246     		mov	r2, r0
 3760 014c F868     		ldr	r0, [r7, #12]
 3761 014e FFF7FEFF 		bl	WriteGRAM
 3762              	.L201:
 997:oled.c        ****     if (octants & 0x40) WriteGRAM(oled, xc+x, yc-yOut, xc+x, yc-yIn, oled->color);    // plot octan
 3763              		.loc 1 997 0 is_stmt 1
 3764 0152 97F82830 		ldrb	r3, [r7, #40]	@ zero_extendqisi2
 3765 0156 03F04003 		and	r3, r3, #64
 3766 015a 002B     		cmp	r3, #0
 3767 015c 14D0     		beq	.L202
 3768              		.loc 1 997 0 is_stmt 0 discriminator 1
 3769 015e BA68     		ldr	r2, [r7, #8]
 3770 0160 3B68     		ldr	r3, [r7]
 3771 0162 D118     		adds	r1, r2, r3
 3772 0164 7A68     		ldr	r2, [r7, #4]
 3773 0166 7B6A     		ldr	r3, [r7, #36]
 3774 0168 D01A     		subs	r0, r2, r3
 3775 016a BA68     		ldr	r2, [r7, #8]
 3776 016c 3B68     		ldr	r3, [r7]
 3777 016e D418     		adds	r4, r2, r3
 3778 0170 7A68     		ldr	r2, [r7, #4]
 3779 0172 3B6A     		ldr	r3, [r7, #32]
 3780 0174 D31A     		subs	r3, r2, r3
 3781 0176 FA68     		ldr	r2, [r7, #12]
 3782 0178 527C     		ldrb	r2, [r2, #17]	@ zero_extendqisi2
 3783 017a 0192     		str	r2, [sp, #4]
 3784 017c 0093     		str	r3, [sp]
 3785 017e 2346     		mov	r3, r4
 3786 0180 0246     		mov	r2, r0
 3787 0182 F868     		ldr	r0, [r7, #12]
 3788 0184 FFF7FEFF 		bl	WriteGRAM
 3789              	.L202:
 998:oled.c        ****     if (octants & 0x80) WriteGRAM(oled, xc+yIn, yc-x, xc+yOut, yc-x, oled->color);    // plot octan
 3790              		.loc 1 998 0 is_stmt 1
 3791 0188 97F92830 		ldrsb	r3, [r7, #40]
 3792 018c 002B     		cmp	r3, #0
 3793 018e 14DA     		bge	.L204
 3794              		.loc 1 998 0 is_stmt 0 discriminator 1
 3795 0190 BA68     		ldr	r2, [r7, #8]
 3796 0192 3B6A     		ldr	r3, [r7, #32]
 3797 0194 D118     		adds	r1, r2, r3
 3798 0196 7A68     		ldr	r2, [r7, #4]
 3799 0198 3B68     		ldr	r3, [r7]
 3800 019a D01A     		subs	r0, r2, r3
 3801 019c BA68     		ldr	r2, [r7, #8]
 3802 019e 7B6A     		ldr	r3, [r7, #36]
 3803 01a0 D418     		adds	r4, r2, r3
 3804 01a2 7A68     		ldr	r2, [r7, #4]
 3805 01a4 3B68     		ldr	r3, [r7]
 3806 01a6 D31A     		subs	r3, r2, r3
 3807 01a8 FA68     		ldr	r2, [r7, #12]
 3808 01aa 527C     		ldrb	r2, [r2, #17]	@ zero_extendqisi2
 3809 01ac 0192     		str	r2, [sp, #4]
ARM GAS  C:\Users\seanj\AppData\Local\Temp\ccw9gLN6.s 			page 86


 3810 01ae 0093     		str	r3, [sp]
 3811 01b0 2346     		mov	r3, r4
 3812 01b2 0246     		mov	r2, r0
 3813 01b4 F868     		ldr	r0, [r7, #12]
 3814 01b6 FFF7FEFF 		bl	WriteGRAM
 3815              	.L204:
 999:oled.c        **** }
 3816              		.loc 1 999 0 is_stmt 1
 3817 01ba 00BF     		nop
 3818 01bc 1437     		adds	r7, r7, #20
 3819              		.cfi_def_cfa_offset 12
 3820 01be BD46     		mov	sp, r7
 3821              		.cfi_def_cfa_register 13
 3822              		@ sp needed
 3823 01c0 90BD     		pop	{r4, r7, pc}
 3824              		.cfi_endproc
 3825              	.LFE101:
 3826              		.size	PlotCircle, .-PlotCircle
 3827 01c2 00BF     		.section	.text.Swap,"ax",%progbits
 3828              		.align	2
 3829              		.global	Swap
 3830              		.thumb
 3831              		.thumb_func
 3832              		.type	Swap, %function
 3833              	Swap:
 3834              	.LFB102:
1000:oled.c        **** 
1001:oled.c        **** //========================================
1002:oled.c        **** // Swap()
1003:oled.c        **** // this function swaps the values of var0
1004:oled.c        **** // and var1
1005:oled.c        **** //
1006:oled.c        **** // Parameters:
1007:oled.c        **** //     var0 - pointer to var0
1008:oled.c        **** //     var1 - pointer to var1
1009:oled.c        **** //========================================
1010:oled.c        **** void Swap(int* var0, int* var1)
1011:oled.c        **** {
 3835              		.loc 1 1011 0
 3836              		.cfi_startproc
 3837              		@ args = 0, pretend = 0, frame = 16
 3838              		@ frame_needed = 1, uses_anonymous_args = 0
 3839              		@ link register save eliminated.
 3840 0000 80B4     		push	{r7}
 3841              		.cfi_def_cfa_offset 4
 3842              		.cfi_offset 7, -4
 3843 0002 85B0     		sub	sp, sp, #20
 3844              		.cfi_def_cfa_offset 24
 3845 0004 00AF     		add	r7, sp, #0
 3846              		.cfi_def_cfa_register 7
 3847 0006 7860     		str	r0, [r7, #4]
 3848 0008 3960     		str	r1, [r7]
1012:oled.c        ****     int temp = *var0;
 3849              		.loc 1 1012 0
 3850 000a 7B68     		ldr	r3, [r7, #4]
 3851 000c 1B68     		ldr	r3, [r3]
 3852 000e FB60     		str	r3, [r7, #12]
ARM GAS  C:\Users\seanj\AppData\Local\Temp\ccw9gLN6.s 			page 87


1013:oled.c        ****     *var0 = *var1;
 3853              		.loc 1 1013 0
 3854 0010 3B68     		ldr	r3, [r7]
 3855 0012 1A68     		ldr	r2, [r3]
 3856 0014 7B68     		ldr	r3, [r7, #4]
 3857 0016 1A60     		str	r2, [r3]
1014:oled.c        ****     *var1 = temp;
 3858              		.loc 1 1014 0
 3859 0018 3B68     		ldr	r3, [r7]
 3860 001a FA68     		ldr	r2, [r7, #12]
 3861 001c 1A60     		str	r2, [r3]
1015:oled.c        **** }
 3862              		.loc 1 1015 0
 3863 001e 00BF     		nop
 3864 0020 1437     		adds	r7, r7, #20
 3865              		.cfi_def_cfa_offset 4
 3866 0022 BD46     		mov	sp, r7
 3867              		.cfi_def_cfa_register 13
 3868              		@ sp needed
 3869 0024 80BC     		pop	{r7}
 3870              		.cfi_restore 7
 3871              		.cfi_def_cfa_offset 0
 3872 0026 7047     		bx	lr
 3873              		.cfi_endproc
 3874              	.LFE102:
 3875              		.size	Swap, .-Swap
 3876              		.text
 3877              	.Letext0:
 3878              		.file 2 "c:\\program files (x86)\\cypress\\psoc creator\\4.2\\psoc creator\\import\\gnu\\arm\\5.4.
 3879              		.file 3 "c:\\program files (x86)\\cypress\\psoc creator\\4.2\\psoc creator\\import\\gnu\\arm\\5.4.
 3880              		.file 4 "Generated_Source\\PSoC5/cytypes.h"
 3881              		.file 5 "font.h"
 3882              		.file 6 "oled.h"
 3883              		.file 7 "Generated_Source\\PSoC5/core_cm3.h"